   1              	 .syntax unified
   2              	 .cpu cortex-m4
   3              	 .eabi_attribute 27,3
   4              	 .fpu fpv4-sp-d16
   5              	 .eabi_attribute 20,1
   6              	 .eabi_attribute 21,1
   7              	 .eabi_attribute 23,3
   8              	 .eabi_attribute 24,1
   9              	 .eabi_attribute 25,1
  10              	 .eabi_attribute 26,1
  11              	 .eabi_attribute 30,6
  12              	 .eabi_attribute 34,1
  13              	 .eabi_attribute 18,4
  14              	 .thumb
  15              	 .file "stream_buffer.c"
  16              	 .text
  17              	.Ltext0:
  18              	 .cfi_sections .debug_frame
  19              	 .section .text.xStreamBufferGenericCreate,"ax",%progbits
  20              	 .align 2
  21              	 .global xStreamBufferGenericCreate
  22              	 .thumb
  23              	 .thumb_func
  25              	xStreamBufferGenericCreate:
  26              	.LFB135:
  27              	 .file 1 "../Dave/Generated/FREERTOS/stream_buffer.c"
   1:../Dave/Generated/FREERTOS/stream_buffer.c **** /*
   2:../Dave/Generated/FREERTOS/stream_buffer.c ****  * FreeRTOS Kernel V10.0.1
   3:../Dave/Generated/FREERTOS/stream_buffer.c ****  * Copyright (C) 2017 Amazon.com, Inc. or its affiliates.  All Rights Reserved.
   4:../Dave/Generated/FREERTOS/stream_buffer.c ****  *
   5:../Dave/Generated/FREERTOS/stream_buffer.c ****  * Permission is hereby granted, free of charge, to any person obtaining a copy of
   6:../Dave/Generated/FREERTOS/stream_buffer.c ****  * this software and associated documentation files (the "Software"), to deal in
   7:../Dave/Generated/FREERTOS/stream_buffer.c ****  * the Software without restriction, including without limitation the rights to
   8:../Dave/Generated/FREERTOS/stream_buffer.c ****  * use, copy, modify, merge, publish, distribute, sublicense, and/or sell copies of
   9:../Dave/Generated/FREERTOS/stream_buffer.c ****  * the Software, and to permit persons to whom the Software is furnished to do so,
  10:../Dave/Generated/FREERTOS/stream_buffer.c ****  * subject to the following conditions:
  11:../Dave/Generated/FREERTOS/stream_buffer.c ****  *
  12:../Dave/Generated/FREERTOS/stream_buffer.c ****  * The above copyright notice and this permission notice shall be included in all
  13:../Dave/Generated/FREERTOS/stream_buffer.c ****  * copies or substantial portions of the Software.
  14:../Dave/Generated/FREERTOS/stream_buffer.c ****  *
  15:../Dave/Generated/FREERTOS/stream_buffer.c ****  * THE SOFTWARE IS PROVIDED "AS IS", WITHOUT WARRANTY OF ANY KIND, EXPRESS OR
  16:../Dave/Generated/FREERTOS/stream_buffer.c ****  * IMPLIED, INCLUDING BUT NOT LIMITED TO THE WARRANTIES OF MERCHANTABILITY, FITNESS
  17:../Dave/Generated/FREERTOS/stream_buffer.c ****  * FOR A PARTICULAR PURPOSE AND NONINFRINGEMENT. IN NO EVENT SHALL THE AUTHORS OR
  18:../Dave/Generated/FREERTOS/stream_buffer.c ****  * COPYRIGHT HOLDERS BE LIABLE FOR ANY CLAIM, DAMAGES OR OTHER LIABILITY, WHETHER
  19:../Dave/Generated/FREERTOS/stream_buffer.c ****  * IN AN ACTION OF CONTRACT, TORT OR OTHERWISE, ARISING FROM, OUT OF OR IN
  20:../Dave/Generated/FREERTOS/stream_buffer.c ****  * CONNECTION WITH THE SOFTWARE OR THE USE OR OTHER DEALINGS IN THE SOFTWARE.
  21:../Dave/Generated/FREERTOS/stream_buffer.c ****  *
  22:../Dave/Generated/FREERTOS/stream_buffer.c ****  * http://www.FreeRTOS.org
  23:../Dave/Generated/FREERTOS/stream_buffer.c ****  * http://aws.amazon.com/freertos
  24:../Dave/Generated/FREERTOS/stream_buffer.c ****  *
  25:../Dave/Generated/FREERTOS/stream_buffer.c ****  * 1 tab == 4 spaces!
  26:../Dave/Generated/FREERTOS/stream_buffer.c ****  */
  27:../Dave/Generated/FREERTOS/stream_buffer.c **** 
  28:../Dave/Generated/FREERTOS/stream_buffer.c **** /* Standard includes. */
  29:../Dave/Generated/FREERTOS/stream_buffer.c **** #include <stdint.h>
  30:../Dave/Generated/FREERTOS/stream_buffer.c **** #include <string.h>
  31:../Dave/Generated/FREERTOS/stream_buffer.c **** 
  32:../Dave/Generated/FREERTOS/stream_buffer.c **** /* Defining MPU_WRAPPERS_INCLUDED_FROM_API_FILE prevents task.h from redefining
  33:../Dave/Generated/FREERTOS/stream_buffer.c **** all the API functions to use the MPU wrappers.  That should only be done when
  34:../Dave/Generated/FREERTOS/stream_buffer.c **** task.h is included from an application file. */
  35:../Dave/Generated/FREERTOS/stream_buffer.c **** #define MPU_WRAPPERS_INCLUDED_FROM_API_FILE
  36:../Dave/Generated/FREERTOS/stream_buffer.c **** 
  37:../Dave/Generated/FREERTOS/stream_buffer.c **** /* FreeRTOS includes. */
  38:../Dave/Generated/FREERTOS/stream_buffer.c **** #include "FreeRTOS.h"
  39:../Dave/Generated/FREERTOS/stream_buffer.c **** #include "task.h"
  40:../Dave/Generated/FREERTOS/stream_buffer.c **** #include "stream_buffer.h"
  41:../Dave/Generated/FREERTOS/stream_buffer.c **** 
  42:../Dave/Generated/FREERTOS/stream_buffer.c **** #if( configUSE_TASK_NOTIFICATIONS != 1 )
  43:../Dave/Generated/FREERTOS/stream_buffer.c **** 	#error configUSE_TASK_NOTIFICATIONS must be set to 1 to build stream_buffer.c
  44:../Dave/Generated/FREERTOS/stream_buffer.c **** #endif
  45:../Dave/Generated/FREERTOS/stream_buffer.c **** 
  46:../Dave/Generated/FREERTOS/stream_buffer.c **** /* Lint e961 and e750 are suppressed as a MISRA exception justified because the
  47:../Dave/Generated/FREERTOS/stream_buffer.c **** MPU ports require MPU_WRAPPERS_INCLUDED_FROM_API_FILE to be defined for the
  48:../Dave/Generated/FREERTOS/stream_buffer.c **** header files above, but not in this file, in order to generate the correct
  49:../Dave/Generated/FREERTOS/stream_buffer.c **** privileged Vs unprivileged linkage and placement. */
  50:../Dave/Generated/FREERTOS/stream_buffer.c **** #undef MPU_WRAPPERS_INCLUDED_FROM_API_FILE /*lint !e961 !e750. */
  51:../Dave/Generated/FREERTOS/stream_buffer.c **** 
  52:../Dave/Generated/FREERTOS/stream_buffer.c **** /* If the user has not provided application specific Rx notification macros,
  53:../Dave/Generated/FREERTOS/stream_buffer.c **** or #defined the notification macros away, them provide default implementations
  54:../Dave/Generated/FREERTOS/stream_buffer.c **** that uses task notifications. */
  55:../Dave/Generated/FREERTOS/stream_buffer.c **** /*lint -save -e9026 Function like macros allowed and needed here so they can be overidden. */
  56:../Dave/Generated/FREERTOS/stream_buffer.c **** #ifndef sbRECEIVE_COMPLETED
  57:../Dave/Generated/FREERTOS/stream_buffer.c **** 	#define sbRECEIVE_COMPLETED( pxStreamBuffer )										\
  58:../Dave/Generated/FREERTOS/stream_buffer.c **** 		vTaskSuspendAll();																\
  59:../Dave/Generated/FREERTOS/stream_buffer.c **** 		{																				\
  60:../Dave/Generated/FREERTOS/stream_buffer.c **** 			if( ( pxStreamBuffer )->xTaskWaitingToSend != NULL )						\
  61:../Dave/Generated/FREERTOS/stream_buffer.c **** 			{																			\
  62:../Dave/Generated/FREERTOS/stream_buffer.c **** 				( void ) xTaskNotify( ( pxStreamBuffer )->xTaskWaitingToSend,			\
  63:../Dave/Generated/FREERTOS/stream_buffer.c **** 									  ( uint32_t ) 0,									\
  64:../Dave/Generated/FREERTOS/stream_buffer.c **** 									  eNoAction );										\
  65:../Dave/Generated/FREERTOS/stream_buffer.c **** 				( pxStreamBuffer )->xTaskWaitingToSend = NULL;							\
  66:../Dave/Generated/FREERTOS/stream_buffer.c **** 			}																			\
  67:../Dave/Generated/FREERTOS/stream_buffer.c **** 		}																				\
  68:../Dave/Generated/FREERTOS/stream_buffer.c **** 		( void ) xTaskResumeAll();
  69:../Dave/Generated/FREERTOS/stream_buffer.c **** #endif /* sbRECEIVE_COMPLETED */
  70:../Dave/Generated/FREERTOS/stream_buffer.c **** 
  71:../Dave/Generated/FREERTOS/stream_buffer.c **** #ifndef sbRECEIVE_COMPLETED_FROM_ISR
  72:../Dave/Generated/FREERTOS/stream_buffer.c **** 	#define sbRECEIVE_COMPLETED_FROM_ISR( pxStreamBuffer,								\
  73:../Dave/Generated/FREERTOS/stream_buffer.c **** 										  pxHigherPriorityTaskWoken )					\
  74:../Dave/Generated/FREERTOS/stream_buffer.c **** 	{																					\
  75:../Dave/Generated/FREERTOS/stream_buffer.c **** 	UBaseType_t uxSavedInterruptStatus;													\
  76:../Dave/Generated/FREERTOS/stream_buffer.c **** 																						\
  77:../Dave/Generated/FREERTOS/stream_buffer.c **** 		uxSavedInterruptStatus = ( UBaseType_t ) portSET_INTERRUPT_MASK_FROM_ISR();		\
  78:../Dave/Generated/FREERTOS/stream_buffer.c **** 		{																				\
  79:../Dave/Generated/FREERTOS/stream_buffer.c **** 			if( ( pxStreamBuffer )->xTaskWaitingToSend != NULL )						\
  80:../Dave/Generated/FREERTOS/stream_buffer.c **** 			{																			\
  81:../Dave/Generated/FREERTOS/stream_buffer.c **** 				( void ) xTaskNotifyFromISR( ( pxStreamBuffer )->xTaskWaitingToSend,	\
  82:../Dave/Generated/FREERTOS/stream_buffer.c **** 											 ( uint32_t ) 0,							\
  83:../Dave/Generated/FREERTOS/stream_buffer.c **** 											 eNoAction,									\
  84:../Dave/Generated/FREERTOS/stream_buffer.c **** 											 pxHigherPriorityTaskWoken );				\
  85:../Dave/Generated/FREERTOS/stream_buffer.c **** 				( pxStreamBuffer )->xTaskWaitingToSend = NULL;							\
  86:../Dave/Generated/FREERTOS/stream_buffer.c **** 			}																			\
  87:../Dave/Generated/FREERTOS/stream_buffer.c **** 		}																				\
  88:../Dave/Generated/FREERTOS/stream_buffer.c **** 		portCLEAR_INTERRUPT_MASK_FROM_ISR( uxSavedInterruptStatus );					\
  89:../Dave/Generated/FREERTOS/stream_buffer.c **** 	}
  90:../Dave/Generated/FREERTOS/stream_buffer.c **** #endif /* sbRECEIVE_COMPLETED_FROM_ISR */
  91:../Dave/Generated/FREERTOS/stream_buffer.c **** 
  92:../Dave/Generated/FREERTOS/stream_buffer.c **** /* If the user has not provided an application specific Tx notification macro,
  93:../Dave/Generated/FREERTOS/stream_buffer.c **** or #defined the notification macro away, them provide a default implementation
  94:../Dave/Generated/FREERTOS/stream_buffer.c **** that uses task notifications. */
  95:../Dave/Generated/FREERTOS/stream_buffer.c **** #ifndef sbSEND_COMPLETED
  96:../Dave/Generated/FREERTOS/stream_buffer.c **** 	#define sbSEND_COMPLETED( pxStreamBuffer )											\
  97:../Dave/Generated/FREERTOS/stream_buffer.c **** 		vTaskSuspendAll();																\
  98:../Dave/Generated/FREERTOS/stream_buffer.c **** 		{																				\
  99:../Dave/Generated/FREERTOS/stream_buffer.c **** 			if( ( pxStreamBuffer )->xTaskWaitingToReceive != NULL )						\
 100:../Dave/Generated/FREERTOS/stream_buffer.c **** 			{																			\
 101:../Dave/Generated/FREERTOS/stream_buffer.c **** 				( void ) xTaskNotify( ( pxStreamBuffer )->xTaskWaitingToReceive,		\
 102:../Dave/Generated/FREERTOS/stream_buffer.c **** 									  ( uint32_t ) 0,									\
 103:../Dave/Generated/FREERTOS/stream_buffer.c **** 									  eNoAction );										\
 104:../Dave/Generated/FREERTOS/stream_buffer.c **** 				( pxStreamBuffer )->xTaskWaitingToReceive = NULL;						\
 105:../Dave/Generated/FREERTOS/stream_buffer.c **** 			}																			\
 106:../Dave/Generated/FREERTOS/stream_buffer.c **** 		}																				\
 107:../Dave/Generated/FREERTOS/stream_buffer.c **** 		( void ) xTaskResumeAll();
 108:../Dave/Generated/FREERTOS/stream_buffer.c **** #endif /* sbSEND_COMPLETED */
 109:../Dave/Generated/FREERTOS/stream_buffer.c **** 
 110:../Dave/Generated/FREERTOS/stream_buffer.c **** #ifndef sbSEND_COMPLETE_FROM_ISR
 111:../Dave/Generated/FREERTOS/stream_buffer.c **** 	#define sbSEND_COMPLETE_FROM_ISR( pxStreamBuffer, pxHigherPriorityTaskWoken )		\
 112:../Dave/Generated/FREERTOS/stream_buffer.c **** 	{																					\
 113:../Dave/Generated/FREERTOS/stream_buffer.c **** 	UBaseType_t uxSavedInterruptStatus;													\
 114:../Dave/Generated/FREERTOS/stream_buffer.c **** 																						\
 115:../Dave/Generated/FREERTOS/stream_buffer.c **** 		uxSavedInterruptStatus = ( UBaseType_t ) portSET_INTERRUPT_MASK_FROM_ISR();		\
 116:../Dave/Generated/FREERTOS/stream_buffer.c **** 		{																				\
 117:../Dave/Generated/FREERTOS/stream_buffer.c **** 			if( ( pxStreamBuffer )->xTaskWaitingToReceive != NULL )						\
 118:../Dave/Generated/FREERTOS/stream_buffer.c **** 			{																			\
 119:../Dave/Generated/FREERTOS/stream_buffer.c **** 				( void ) xTaskNotifyFromISR( ( pxStreamBuffer )->xTaskWaitingToReceive,	\
 120:../Dave/Generated/FREERTOS/stream_buffer.c **** 											 ( uint32_t ) 0,							\
 121:../Dave/Generated/FREERTOS/stream_buffer.c **** 											 eNoAction,									\
 122:../Dave/Generated/FREERTOS/stream_buffer.c **** 											 pxHigherPriorityTaskWoken );				\
 123:../Dave/Generated/FREERTOS/stream_buffer.c **** 				( pxStreamBuffer )->xTaskWaitingToReceive = NULL;						\
 124:../Dave/Generated/FREERTOS/stream_buffer.c **** 			}																			\
 125:../Dave/Generated/FREERTOS/stream_buffer.c **** 		}																				\
 126:../Dave/Generated/FREERTOS/stream_buffer.c **** 		portCLEAR_INTERRUPT_MASK_FROM_ISR( uxSavedInterruptStatus );					\
 127:../Dave/Generated/FREERTOS/stream_buffer.c **** 	}
 128:../Dave/Generated/FREERTOS/stream_buffer.c **** #endif /* sbSEND_COMPLETE_FROM_ISR */
 129:../Dave/Generated/FREERTOS/stream_buffer.c **** /*lint -restore (9026) */
 130:../Dave/Generated/FREERTOS/stream_buffer.c **** 
 131:../Dave/Generated/FREERTOS/stream_buffer.c **** /* The number of bytes used to hold the length of a message in the buffer. */
 132:../Dave/Generated/FREERTOS/stream_buffer.c **** #define sbBYTES_TO_STORE_MESSAGE_LENGTH ( sizeof( size_t ) )
 133:../Dave/Generated/FREERTOS/stream_buffer.c **** 
 134:../Dave/Generated/FREERTOS/stream_buffer.c **** /* Bits stored in the ucFlags field of the stream buffer. */
 135:../Dave/Generated/FREERTOS/stream_buffer.c **** #define sbFLAGS_IS_MESSAGE_BUFFER		( ( uint8_t ) 1 ) /* Set if the stream buffer was created as a m
 136:../Dave/Generated/FREERTOS/stream_buffer.c **** #define sbFLAGS_IS_STATICALLY_ALLOCATED ( ( uint8_t ) 2 ) /* Set if the stream buffer was created u
 137:../Dave/Generated/FREERTOS/stream_buffer.c **** 
 138:../Dave/Generated/FREERTOS/stream_buffer.c **** /*-----------------------------------------------------------*/
 139:../Dave/Generated/FREERTOS/stream_buffer.c **** 
 140:../Dave/Generated/FREERTOS/stream_buffer.c **** /* Structure that hold state information on the buffer. */
 141:../Dave/Generated/FREERTOS/stream_buffer.c **** typedef struct xSTREAM_BUFFER /*lint !e9058 Style convention uses tag. */
 142:../Dave/Generated/FREERTOS/stream_buffer.c **** {
 143:../Dave/Generated/FREERTOS/stream_buffer.c **** 	volatile size_t xTail;				/* Index to the next item to read within the buffer. */
 144:../Dave/Generated/FREERTOS/stream_buffer.c **** 	volatile size_t xHead;				/* Index to the next item to write within the buffer. */
 145:../Dave/Generated/FREERTOS/stream_buffer.c **** 	size_t xLength;						/* The length of the buffer pointed to by pucBuffer. */
 146:../Dave/Generated/FREERTOS/stream_buffer.c **** 	size_t xTriggerLevelBytes;			/* The number of bytes that must be in the stream buffer before a tas
 147:../Dave/Generated/FREERTOS/stream_buffer.c **** 	volatile TaskHandle_t xTaskWaitingToReceive; /* Holds the handle of a task waiting for data, or NU
 148:../Dave/Generated/FREERTOS/stream_buffer.c **** 	volatile TaskHandle_t xTaskWaitingToSend;	/* Holds the handle of a task waiting to send data to a 
 149:../Dave/Generated/FREERTOS/stream_buffer.c **** 	uint8_t *pucBuffer;					/* Points to the buffer itself - that is - the RAM that stores the data pa
 150:../Dave/Generated/FREERTOS/stream_buffer.c **** 	uint8_t ucFlags;
 151:../Dave/Generated/FREERTOS/stream_buffer.c **** 
 152:../Dave/Generated/FREERTOS/stream_buffer.c **** 	#if ( configUSE_TRACE_FACILITY == 1 )
 153:../Dave/Generated/FREERTOS/stream_buffer.c **** 		UBaseType_t uxStreamBufferNumber;		/* Used for tracing purposes. */
 154:../Dave/Generated/FREERTOS/stream_buffer.c **** 	#endif
 155:../Dave/Generated/FREERTOS/stream_buffer.c **** } StreamBuffer_t;
 156:../Dave/Generated/FREERTOS/stream_buffer.c **** 
 157:../Dave/Generated/FREERTOS/stream_buffer.c **** /*
 158:../Dave/Generated/FREERTOS/stream_buffer.c ****  * The number of bytes available to be read from the buffer.
 159:../Dave/Generated/FREERTOS/stream_buffer.c ****  */
 160:../Dave/Generated/FREERTOS/stream_buffer.c **** static size_t prvBytesInBuffer( const StreamBuffer_t * const pxStreamBuffer ) PRIVILEGED_FUNCTION;
 161:../Dave/Generated/FREERTOS/stream_buffer.c **** 
 162:../Dave/Generated/FREERTOS/stream_buffer.c **** /*
 163:../Dave/Generated/FREERTOS/stream_buffer.c ****  * Add xCount bytes from pucData into the pxStreamBuffer message buffer.
 164:../Dave/Generated/FREERTOS/stream_buffer.c ****  * Returns the number of bytes written, which will either equal xCount in the
 165:../Dave/Generated/FREERTOS/stream_buffer.c ****  * success case, or 0 if there was not enough space in the buffer (in which case
 166:../Dave/Generated/FREERTOS/stream_buffer.c ****  * no data is written into the buffer).
 167:../Dave/Generated/FREERTOS/stream_buffer.c ****  */
 168:../Dave/Generated/FREERTOS/stream_buffer.c **** static size_t prvWriteBytesToBuffer( StreamBuffer_t * const pxStreamBuffer, const uint8_t *pucData,
 169:../Dave/Generated/FREERTOS/stream_buffer.c **** 
 170:../Dave/Generated/FREERTOS/stream_buffer.c **** /*
 171:../Dave/Generated/FREERTOS/stream_buffer.c ****  * If the stream buffer is being used as a message buffer, then reads an entire
 172:../Dave/Generated/FREERTOS/stream_buffer.c ****  * message out of the buffer.  If the stream buffer is being used as a stream
 173:../Dave/Generated/FREERTOS/stream_buffer.c ****  * buffer then read as many bytes as possible from the buffer.
 174:../Dave/Generated/FREERTOS/stream_buffer.c ****  * prvReadBytesFromBuffer() is called to actually extract the bytes from the
 175:../Dave/Generated/FREERTOS/stream_buffer.c ****  * buffer's data storage area.
 176:../Dave/Generated/FREERTOS/stream_buffer.c ****  */
 177:../Dave/Generated/FREERTOS/stream_buffer.c **** static size_t prvReadMessageFromBuffer( StreamBuffer_t *pxStreamBuffer,
 178:../Dave/Generated/FREERTOS/stream_buffer.c **** 										void *pvRxData,
 179:../Dave/Generated/FREERTOS/stream_buffer.c **** 										size_t xBufferLengthBytes,
 180:../Dave/Generated/FREERTOS/stream_buffer.c **** 										size_t xBytesAvailable,
 181:../Dave/Generated/FREERTOS/stream_buffer.c **** 										size_t xBytesToStoreMessageLength ) PRIVILEGED_FUNCTION;
 182:../Dave/Generated/FREERTOS/stream_buffer.c **** 
 183:../Dave/Generated/FREERTOS/stream_buffer.c **** /*
 184:../Dave/Generated/FREERTOS/stream_buffer.c ****  * If the stream buffer is being used as a message buffer, then writes an entire
 185:../Dave/Generated/FREERTOS/stream_buffer.c ****  * message to the buffer.  If the stream buffer is being used as a stream
 186:../Dave/Generated/FREERTOS/stream_buffer.c ****  * buffer then write as many bytes as possible to the buffer.
 187:../Dave/Generated/FREERTOS/stream_buffer.c ****  * prvWriteBytestoBuffer() is called to actually send the bytes to the buffer's
 188:../Dave/Generated/FREERTOS/stream_buffer.c ****  * data storage area.
 189:../Dave/Generated/FREERTOS/stream_buffer.c ****  */
 190:../Dave/Generated/FREERTOS/stream_buffer.c **** static size_t prvWriteMessageToBuffer(  StreamBuffer_t * const pxStreamBuffer,
 191:../Dave/Generated/FREERTOS/stream_buffer.c **** 										const void * pvTxData,
 192:../Dave/Generated/FREERTOS/stream_buffer.c **** 										size_t xDataLengthBytes,
 193:../Dave/Generated/FREERTOS/stream_buffer.c **** 										size_t xSpace,
 194:../Dave/Generated/FREERTOS/stream_buffer.c **** 										size_t xRequiredSpace ) PRIVILEGED_FUNCTION;
 195:../Dave/Generated/FREERTOS/stream_buffer.c **** 
 196:../Dave/Generated/FREERTOS/stream_buffer.c **** /*
 197:../Dave/Generated/FREERTOS/stream_buffer.c ****  * Read xMaxCount bytes from the pxStreamBuffer message buffer and write them
 198:../Dave/Generated/FREERTOS/stream_buffer.c ****  * to pucData.
 199:../Dave/Generated/FREERTOS/stream_buffer.c ****  */
 200:../Dave/Generated/FREERTOS/stream_buffer.c **** static size_t prvReadBytesFromBuffer( StreamBuffer_t *pxStreamBuffer,
 201:../Dave/Generated/FREERTOS/stream_buffer.c **** 									  uint8_t *pucData,
 202:../Dave/Generated/FREERTOS/stream_buffer.c **** 									  size_t xMaxCount,
 203:../Dave/Generated/FREERTOS/stream_buffer.c **** 									  size_t xBytesAvailable ); PRIVILEGED_FUNCTION
 204:../Dave/Generated/FREERTOS/stream_buffer.c **** 
 205:../Dave/Generated/FREERTOS/stream_buffer.c **** /*
 206:../Dave/Generated/FREERTOS/stream_buffer.c ****  * Called by both pxStreamBufferCreate() and pxStreamBufferCreateStatic() to
 207:../Dave/Generated/FREERTOS/stream_buffer.c ****  * initialise the members of the newly created stream buffer structure.
 208:../Dave/Generated/FREERTOS/stream_buffer.c ****  */
 209:../Dave/Generated/FREERTOS/stream_buffer.c **** static void prvInitialiseNewStreamBuffer( StreamBuffer_t * const pxStreamBuffer,
 210:../Dave/Generated/FREERTOS/stream_buffer.c **** 										  uint8_t * const pucBuffer,
 211:../Dave/Generated/FREERTOS/stream_buffer.c **** 										  size_t xBufferSizeBytes,
 212:../Dave/Generated/FREERTOS/stream_buffer.c **** 										  size_t xTriggerLevelBytes,
 213:../Dave/Generated/FREERTOS/stream_buffer.c **** 										  BaseType_t xIsMessageBuffer ) PRIVILEGED_FUNCTION;
 214:../Dave/Generated/FREERTOS/stream_buffer.c **** 
 215:../Dave/Generated/FREERTOS/stream_buffer.c **** /*-----------------------------------------------------------*/
 216:../Dave/Generated/FREERTOS/stream_buffer.c **** 
 217:../Dave/Generated/FREERTOS/stream_buffer.c **** #if( configSUPPORT_DYNAMIC_ALLOCATION == 1 )
 218:../Dave/Generated/FREERTOS/stream_buffer.c **** 
 219:../Dave/Generated/FREERTOS/stream_buffer.c **** 	StreamBufferHandle_t xStreamBufferGenericCreate( size_t xBufferSizeBytes, size_t xTriggerLevelByte
 220:../Dave/Generated/FREERTOS/stream_buffer.c **** 	{
  28              	 .loc 1 220 0
  29              	 .cfi_startproc
  30              	 
  31              	 
  32 0000 80B5     	 push {r7,lr}
  33              	.LCFI0:
  34              	 .cfi_def_cfa_offset 8
  35              	 .cfi_offset 7,-8
  36              	 .cfi_offset 14,-4
  37 0002 8AB0     	 sub sp,sp,#40
  38              	.LCFI1:
  39              	 .cfi_def_cfa_offset 48
  40 0004 02AF     	 add r7,sp,#8
  41              	.LCFI2:
  42              	 .cfi_def_cfa 7,40
  43 0006 F860     	 str r0,[r7,#12]
  44 0008 B960     	 str r1,[r7,#8]
  45 000a 7A60     	 str r2,[r7,#4]
 221:../Dave/Generated/FREERTOS/stream_buffer.c **** 	uint8_t *pucAllocatedMemory;
 222:../Dave/Generated/FREERTOS/stream_buffer.c **** 
 223:../Dave/Generated/FREERTOS/stream_buffer.c **** 		/* In case the stream buffer is going to be used as a message buffer
 224:../Dave/Generated/FREERTOS/stream_buffer.c **** 		(that is, it will hold discrete messages with a little meta data that
 225:../Dave/Generated/FREERTOS/stream_buffer.c **** 		says how big the next message is) check the buffer will be large enough
 226:../Dave/Generated/FREERTOS/stream_buffer.c **** 		to hold at least one message. */
 227:../Dave/Generated/FREERTOS/stream_buffer.c **** 		configASSERT( xBufferSizeBytes > sbBYTES_TO_STORE_MESSAGE_LENGTH );
  46              	 .loc 1 227 0
  47 000c FB68     	 ldr r3,[r7,#12]
  48 000e 042B     	 cmp r3,#4
  49 0010 09D8     	 bhi .L2
  50              	.LBB77:
  51              	.LBB78:
  52              	 .file 2 "../Dave/Generated/FREERTOS/portable/GCC/portmacro.h"
   1:../Dave/Generated/FREERTOS/portable/GCC/portmacro.h **** /*
   2:../Dave/Generated/FREERTOS/portable/GCC/portmacro.h ****  * FreeRTOS Kernel V10.0.1
   3:../Dave/Generated/FREERTOS/portable/GCC/portmacro.h ****  * Copyright (C) 2017 Amazon.com, Inc. or its affiliates.  All Rights Reserved.
   4:../Dave/Generated/FREERTOS/portable/GCC/portmacro.h ****  *
   5:../Dave/Generated/FREERTOS/portable/GCC/portmacro.h ****  * Permission is hereby granted, free of charge, to any person obtaining a copy of
   6:../Dave/Generated/FREERTOS/portable/GCC/portmacro.h ****  * this software and associated documentation files (the "Software"), to deal in
   7:../Dave/Generated/FREERTOS/portable/GCC/portmacro.h ****  * the Software without restriction, including without limitation the rights to
   8:../Dave/Generated/FREERTOS/portable/GCC/portmacro.h ****  * use, copy, modify, merge, publish, distribute, sublicense, and/or sell copies of
   9:../Dave/Generated/FREERTOS/portable/GCC/portmacro.h ****  * the Software, and to permit persons to whom the Software is furnished to do so,
  10:../Dave/Generated/FREERTOS/portable/GCC/portmacro.h ****  * subject to the following conditions:
  11:../Dave/Generated/FREERTOS/portable/GCC/portmacro.h ****  *
  12:../Dave/Generated/FREERTOS/portable/GCC/portmacro.h ****  * The above copyright notice and this permission notice shall be included in all
  13:../Dave/Generated/FREERTOS/portable/GCC/portmacro.h ****  * copies or substantial portions of the Software.
  14:../Dave/Generated/FREERTOS/portable/GCC/portmacro.h ****  *
  15:../Dave/Generated/FREERTOS/portable/GCC/portmacro.h ****  * THE SOFTWARE IS PROVIDED "AS IS", WITHOUT WARRANTY OF ANY KIND, EXPRESS OR
  16:../Dave/Generated/FREERTOS/portable/GCC/portmacro.h ****  * IMPLIED, INCLUDING BUT NOT LIMITED TO THE WARRANTIES OF MERCHANTABILITY, FITNESS
  17:../Dave/Generated/FREERTOS/portable/GCC/portmacro.h ****  * FOR A PARTICULAR PURPOSE AND NONINFRINGEMENT. IN NO EVENT SHALL THE AUTHORS OR
  18:../Dave/Generated/FREERTOS/portable/GCC/portmacro.h ****  * COPYRIGHT HOLDERS BE LIABLE FOR ANY CLAIM, DAMAGES OR OTHER LIABILITY, WHETHER
  19:../Dave/Generated/FREERTOS/portable/GCC/portmacro.h ****  * IN AN ACTION OF CONTRACT, TORT OR OTHERWISE, ARISING FROM, OUT OF OR IN
  20:../Dave/Generated/FREERTOS/portable/GCC/portmacro.h ****  * CONNECTION WITH THE SOFTWARE OR THE USE OR OTHER DEALINGS IN THE SOFTWARE.
  21:../Dave/Generated/FREERTOS/portable/GCC/portmacro.h ****  *
  22:../Dave/Generated/FREERTOS/portable/GCC/portmacro.h ****  * http://www.FreeRTOS.org
  23:../Dave/Generated/FREERTOS/portable/GCC/portmacro.h ****  * http://aws.amazon.com/freertos
  24:../Dave/Generated/FREERTOS/portable/GCC/portmacro.h ****  *
  25:../Dave/Generated/FREERTOS/portable/GCC/portmacro.h ****  * 1 tab == 4 spaces!
  26:../Dave/Generated/FREERTOS/portable/GCC/portmacro.h ****  */
  27:../Dave/Generated/FREERTOS/portable/GCC/portmacro.h **** 
  28:../Dave/Generated/FREERTOS/portable/GCC/portmacro.h **** 
  29:../Dave/Generated/FREERTOS/portable/GCC/portmacro.h **** #ifndef PORTMACRO_H
  30:../Dave/Generated/FREERTOS/portable/GCC/portmacro.h **** #define PORTMACRO_H
  31:../Dave/Generated/FREERTOS/portable/GCC/portmacro.h **** 
  32:../Dave/Generated/FREERTOS/portable/GCC/portmacro.h **** #ifdef __cplusplus
  33:../Dave/Generated/FREERTOS/portable/GCC/portmacro.h **** extern "C" {
  34:../Dave/Generated/FREERTOS/portable/GCC/portmacro.h **** #endif
  35:../Dave/Generated/FREERTOS/portable/GCC/portmacro.h **** 
  36:../Dave/Generated/FREERTOS/portable/GCC/portmacro.h **** /*-----------------------------------------------------------
  37:../Dave/Generated/FREERTOS/portable/GCC/portmacro.h ****  * Port specific definitions.
  38:../Dave/Generated/FREERTOS/portable/GCC/portmacro.h ****  *
  39:../Dave/Generated/FREERTOS/portable/GCC/portmacro.h ****  * The settings in this file configure FreeRTOS correctly for the
  40:../Dave/Generated/FREERTOS/portable/GCC/portmacro.h ****  * given hardware and compiler.
  41:../Dave/Generated/FREERTOS/portable/GCC/portmacro.h ****  *
  42:../Dave/Generated/FREERTOS/portable/GCC/portmacro.h ****  * These settings should not be altered.
  43:../Dave/Generated/FREERTOS/portable/GCC/portmacro.h ****  *-----------------------------------------------------------
  44:../Dave/Generated/FREERTOS/portable/GCC/portmacro.h ****  */
  45:../Dave/Generated/FREERTOS/portable/GCC/portmacro.h **** 
  46:../Dave/Generated/FREERTOS/portable/GCC/portmacro.h **** /* Type definitions. */
  47:../Dave/Generated/FREERTOS/portable/GCC/portmacro.h **** #define portCHAR		char
  48:../Dave/Generated/FREERTOS/portable/GCC/portmacro.h **** #define portFLOAT		float
  49:../Dave/Generated/FREERTOS/portable/GCC/portmacro.h **** #define portDOUBLE		double
  50:../Dave/Generated/FREERTOS/portable/GCC/portmacro.h **** #define portLONG		long
  51:../Dave/Generated/FREERTOS/portable/GCC/portmacro.h **** #define portSHORT		short
  52:../Dave/Generated/FREERTOS/portable/GCC/portmacro.h **** #define portSTACK_TYPE	uint32_t
  53:../Dave/Generated/FREERTOS/portable/GCC/portmacro.h **** #define portBASE_TYPE	long
  54:../Dave/Generated/FREERTOS/portable/GCC/portmacro.h **** 
  55:../Dave/Generated/FREERTOS/portable/GCC/portmacro.h **** typedef portSTACK_TYPE StackType_t;
  56:../Dave/Generated/FREERTOS/portable/GCC/portmacro.h **** typedef long BaseType_t;
  57:../Dave/Generated/FREERTOS/portable/GCC/portmacro.h **** typedef unsigned long UBaseType_t;
  58:../Dave/Generated/FREERTOS/portable/GCC/portmacro.h **** 
  59:../Dave/Generated/FREERTOS/portable/GCC/portmacro.h **** #if( configUSE_16_BIT_TICKS == 1 )
  60:../Dave/Generated/FREERTOS/portable/GCC/portmacro.h **** 	typedef uint16_t TickType_t;
  61:../Dave/Generated/FREERTOS/portable/GCC/portmacro.h **** 	#define portMAX_DELAY ( TickType_t ) 0xffff
  62:../Dave/Generated/FREERTOS/portable/GCC/portmacro.h **** #else
  63:../Dave/Generated/FREERTOS/portable/GCC/portmacro.h **** 	typedef uint32_t TickType_t;
  64:../Dave/Generated/FREERTOS/portable/GCC/portmacro.h **** 	#define portMAX_DELAY ( TickType_t ) 0xffffffffUL
  65:../Dave/Generated/FREERTOS/portable/GCC/portmacro.h **** 
  66:../Dave/Generated/FREERTOS/portable/GCC/portmacro.h **** 	/* 32-bit tick type on a 32-bit architecture, so reads of the tick count do
  67:../Dave/Generated/FREERTOS/portable/GCC/portmacro.h **** 	not need to be guarded with a critical section. */
  68:../Dave/Generated/FREERTOS/portable/GCC/portmacro.h **** 	#define portTICK_TYPE_IS_ATOMIC 1
  69:../Dave/Generated/FREERTOS/portable/GCC/portmacro.h **** #endif
  70:../Dave/Generated/FREERTOS/portable/GCC/portmacro.h **** /*-----------------------------------------------------------*/
  71:../Dave/Generated/FREERTOS/portable/GCC/portmacro.h **** 
  72:../Dave/Generated/FREERTOS/portable/GCC/portmacro.h **** /* Architecture specifics. */
  73:../Dave/Generated/FREERTOS/portable/GCC/portmacro.h **** #define portSTACK_GROWTH			( -1 )
  74:../Dave/Generated/FREERTOS/portable/GCC/portmacro.h **** #define portTICK_PERIOD_MS			( ( TickType_t ) 1000 / configTICK_RATE_HZ )
  75:../Dave/Generated/FREERTOS/portable/GCC/portmacro.h **** #define portBYTE_ALIGNMENT			8
  76:../Dave/Generated/FREERTOS/portable/GCC/portmacro.h **** /*-----------------------------------------------------------*/
  77:../Dave/Generated/FREERTOS/portable/GCC/portmacro.h **** 
  78:../Dave/Generated/FREERTOS/portable/GCC/portmacro.h **** /* Scheduler utilities. */
  79:../Dave/Generated/FREERTOS/portable/GCC/portmacro.h **** #define portYIELD() 															\
  80:../Dave/Generated/FREERTOS/portable/GCC/portmacro.h **** {																				\
  81:../Dave/Generated/FREERTOS/portable/GCC/portmacro.h **** 	/* Set a PendSV to request a context switch. */								\
  82:../Dave/Generated/FREERTOS/portable/GCC/portmacro.h **** 	portNVIC_INT_CTRL_REG = portNVIC_PENDSVSET_BIT;								\
  83:../Dave/Generated/FREERTOS/portable/GCC/portmacro.h **** 																				\
  84:../Dave/Generated/FREERTOS/portable/GCC/portmacro.h **** 	/* Barriers are normally not required but do ensure the code is completely	\
  85:../Dave/Generated/FREERTOS/portable/GCC/portmacro.h **** 	within the specified behaviour for the architecture. */						\
  86:../Dave/Generated/FREERTOS/portable/GCC/portmacro.h **** 	__asm volatile( "dsb" ::: "memory" );										\
  87:../Dave/Generated/FREERTOS/portable/GCC/portmacro.h **** 	__asm volatile( "isb" );													\
  88:../Dave/Generated/FREERTOS/portable/GCC/portmacro.h **** }
  89:../Dave/Generated/FREERTOS/portable/GCC/portmacro.h **** 
  90:../Dave/Generated/FREERTOS/portable/GCC/portmacro.h **** #define portNVIC_INT_CTRL_REG		( * ( ( volatile uint32_t * ) 0xe000ed04 ) )
  91:../Dave/Generated/FREERTOS/portable/GCC/portmacro.h **** #define portNVIC_PENDSVSET_BIT		( 1UL << 28UL )
  92:../Dave/Generated/FREERTOS/portable/GCC/portmacro.h **** #define portEND_SWITCHING_ISR( xSwitchRequired ) if( xSwitchRequired != pdFALSE ) portYIELD()
  93:../Dave/Generated/FREERTOS/portable/GCC/portmacro.h **** #define portYIELD_FROM_ISR( x ) portEND_SWITCHING_ISR( x )
  94:../Dave/Generated/FREERTOS/portable/GCC/portmacro.h **** /*-----------------------------------------------------------*/
  95:../Dave/Generated/FREERTOS/portable/GCC/portmacro.h **** 
  96:../Dave/Generated/FREERTOS/portable/GCC/portmacro.h **** /* Critical section management. */
  97:../Dave/Generated/FREERTOS/portable/GCC/portmacro.h **** extern void vPortEnterCritical( void );
  98:../Dave/Generated/FREERTOS/portable/GCC/portmacro.h **** extern void vPortExitCritical( void );
  99:../Dave/Generated/FREERTOS/portable/GCC/portmacro.h **** #define portSET_INTERRUPT_MASK_FROM_ISR()		ulPortRaiseBASEPRI()
 100:../Dave/Generated/FREERTOS/portable/GCC/portmacro.h **** #define portCLEAR_INTERRUPT_MASK_FROM_ISR(x)	vPortSetBASEPRI(x)
 101:../Dave/Generated/FREERTOS/portable/GCC/portmacro.h **** #define portDISABLE_INTERRUPTS()				vPortRaiseBASEPRI()
 102:../Dave/Generated/FREERTOS/portable/GCC/portmacro.h **** #define portENABLE_INTERRUPTS()					vPortSetBASEPRI(0)
 103:../Dave/Generated/FREERTOS/portable/GCC/portmacro.h **** #define portENTER_CRITICAL()					vPortEnterCritical()
 104:../Dave/Generated/FREERTOS/portable/GCC/portmacro.h **** #define portEXIT_CRITICAL()						vPortExitCritical()
 105:../Dave/Generated/FREERTOS/portable/GCC/portmacro.h **** 
 106:../Dave/Generated/FREERTOS/portable/GCC/portmacro.h **** /*-----------------------------------------------------------*/
 107:../Dave/Generated/FREERTOS/portable/GCC/portmacro.h **** 
 108:../Dave/Generated/FREERTOS/portable/GCC/portmacro.h **** /* Task function macros as described on the FreeRTOS.org WEB site.  These are
 109:../Dave/Generated/FREERTOS/portable/GCC/portmacro.h **** not necessary for to use this port.  They are defined so the common demo files
 110:../Dave/Generated/FREERTOS/portable/GCC/portmacro.h **** (which build with all the ports) will build. */
 111:../Dave/Generated/FREERTOS/portable/GCC/portmacro.h **** #define portTASK_FUNCTION_PROTO( vFunction, pvParameters ) void vFunction( void *pvParameters )
 112:../Dave/Generated/FREERTOS/portable/GCC/portmacro.h **** #define portTASK_FUNCTION( vFunction, pvParameters ) void vFunction( void *pvParameters )
 113:../Dave/Generated/FREERTOS/portable/GCC/portmacro.h **** /*-----------------------------------------------------------*/
 114:../Dave/Generated/FREERTOS/portable/GCC/portmacro.h **** 
 115:../Dave/Generated/FREERTOS/portable/GCC/portmacro.h **** /* Tickless idle/low power functionality. */
 116:../Dave/Generated/FREERTOS/portable/GCC/portmacro.h **** #ifndef portSUPPRESS_TICKS_AND_SLEEP
 117:../Dave/Generated/FREERTOS/portable/GCC/portmacro.h **** 	extern void vPortSuppressTicksAndSleep( TickType_t xExpectedIdleTime );
 118:../Dave/Generated/FREERTOS/portable/GCC/portmacro.h **** 	#define portSUPPRESS_TICKS_AND_SLEEP( xExpectedIdleTime ) vPortSuppressTicksAndSleep( xExpectedIdl
 119:../Dave/Generated/FREERTOS/portable/GCC/portmacro.h **** #endif
 120:../Dave/Generated/FREERTOS/portable/GCC/portmacro.h **** /*-----------------------------------------------------------*/
 121:../Dave/Generated/FREERTOS/portable/GCC/portmacro.h **** 
 122:../Dave/Generated/FREERTOS/portable/GCC/portmacro.h **** /* Architecture specific optimisations. */
 123:../Dave/Generated/FREERTOS/portable/GCC/portmacro.h **** #ifndef configUSE_PORT_OPTIMISED_TASK_SELECTION
 124:../Dave/Generated/FREERTOS/portable/GCC/portmacro.h **** 	#define configUSE_PORT_OPTIMISED_TASK_SELECTION 1
 125:../Dave/Generated/FREERTOS/portable/GCC/portmacro.h **** #endif
 126:../Dave/Generated/FREERTOS/portable/GCC/portmacro.h **** 
 127:../Dave/Generated/FREERTOS/portable/GCC/portmacro.h **** #if configUSE_PORT_OPTIMISED_TASK_SELECTION == 1
 128:../Dave/Generated/FREERTOS/portable/GCC/portmacro.h **** 
 129:../Dave/Generated/FREERTOS/portable/GCC/portmacro.h **** 	/* Generic helper function. */
 130:../Dave/Generated/FREERTOS/portable/GCC/portmacro.h **** 	__attribute__( ( always_inline ) ) static inline uint8_t ucPortCountLeadingZeros( uint32_t ulBitma
 131:../Dave/Generated/FREERTOS/portable/GCC/portmacro.h **** 	{
 132:../Dave/Generated/FREERTOS/portable/GCC/portmacro.h **** 	uint8_t ucReturn;
 133:../Dave/Generated/FREERTOS/portable/GCC/portmacro.h **** 
 134:../Dave/Generated/FREERTOS/portable/GCC/portmacro.h **** 		__asm volatile ( "clz %0, %1" : "=r" ( ucReturn ) : "r" ( ulBitmap ) : "memory" );
 135:../Dave/Generated/FREERTOS/portable/GCC/portmacro.h **** 		return ucReturn;
 136:../Dave/Generated/FREERTOS/portable/GCC/portmacro.h **** 	}
 137:../Dave/Generated/FREERTOS/portable/GCC/portmacro.h **** 
 138:../Dave/Generated/FREERTOS/portable/GCC/portmacro.h **** 	/* Check the configuration. */
 139:../Dave/Generated/FREERTOS/portable/GCC/portmacro.h **** 	#if( configMAX_PRIORITIES > 32 )
 140:../Dave/Generated/FREERTOS/portable/GCC/portmacro.h **** 		#error configUSE_PORT_OPTIMISED_TASK_SELECTION can only be set to 1 when configMAX_PRIORITIES is 
 141:../Dave/Generated/FREERTOS/portable/GCC/portmacro.h **** 	#endif
 142:../Dave/Generated/FREERTOS/portable/GCC/portmacro.h **** 
 143:../Dave/Generated/FREERTOS/portable/GCC/portmacro.h **** 	/* Store/clear the ready priorities in a bit map. */
 144:../Dave/Generated/FREERTOS/portable/GCC/portmacro.h **** 	#define portRECORD_READY_PRIORITY( uxPriority, uxReadyPriorities ) ( uxReadyPriorities ) |= ( 1UL 
 145:../Dave/Generated/FREERTOS/portable/GCC/portmacro.h **** 	#define portRESET_READY_PRIORITY( uxPriority, uxReadyPriorities ) ( uxReadyPriorities ) &= ~( 1UL 
 146:../Dave/Generated/FREERTOS/portable/GCC/portmacro.h **** 
 147:../Dave/Generated/FREERTOS/portable/GCC/portmacro.h **** 	/*-----------------------------------------------------------*/
 148:../Dave/Generated/FREERTOS/portable/GCC/portmacro.h **** 
 149:../Dave/Generated/FREERTOS/portable/GCC/portmacro.h **** 	#define portGET_HIGHEST_PRIORITY( uxTopPriority, uxReadyPriorities ) uxTopPriority = ( 31UL - ( ui
 150:../Dave/Generated/FREERTOS/portable/GCC/portmacro.h **** 
 151:../Dave/Generated/FREERTOS/portable/GCC/portmacro.h **** #endif /* configUSE_PORT_OPTIMISED_TASK_SELECTION */
 152:../Dave/Generated/FREERTOS/portable/GCC/portmacro.h **** 
 153:../Dave/Generated/FREERTOS/portable/GCC/portmacro.h **** /*-----------------------------------------------------------*/
 154:../Dave/Generated/FREERTOS/portable/GCC/portmacro.h **** 
 155:../Dave/Generated/FREERTOS/portable/GCC/portmacro.h **** #ifdef configASSERT
 156:../Dave/Generated/FREERTOS/portable/GCC/portmacro.h **** 	void vPortValidateInterruptPriority( void );
 157:../Dave/Generated/FREERTOS/portable/GCC/portmacro.h **** 	#define portASSERT_IF_INTERRUPT_PRIORITY_INVALID() 	vPortValidateInterruptPriority()
 158:../Dave/Generated/FREERTOS/portable/GCC/portmacro.h **** #endif
 159:../Dave/Generated/FREERTOS/portable/GCC/portmacro.h **** 
 160:../Dave/Generated/FREERTOS/portable/GCC/portmacro.h **** /* portNOP() is not required by this port. */
 161:../Dave/Generated/FREERTOS/portable/GCC/portmacro.h **** #define portNOP()
 162:../Dave/Generated/FREERTOS/portable/GCC/portmacro.h **** 
 163:../Dave/Generated/FREERTOS/portable/GCC/portmacro.h **** #define portINLINE	__inline
 164:../Dave/Generated/FREERTOS/portable/GCC/portmacro.h **** 
 165:../Dave/Generated/FREERTOS/portable/GCC/portmacro.h **** #ifndef portFORCE_INLINE
 166:../Dave/Generated/FREERTOS/portable/GCC/portmacro.h **** 	#define portFORCE_INLINE inline __attribute__(( always_inline))
 167:../Dave/Generated/FREERTOS/portable/GCC/portmacro.h **** #endif
 168:../Dave/Generated/FREERTOS/portable/GCC/portmacro.h **** 
 169:../Dave/Generated/FREERTOS/portable/GCC/portmacro.h **** portFORCE_INLINE static BaseType_t xPortIsInsideInterrupt( void )
 170:../Dave/Generated/FREERTOS/portable/GCC/portmacro.h **** {
 171:../Dave/Generated/FREERTOS/portable/GCC/portmacro.h **** uint32_t ulCurrentInterrupt;
 172:../Dave/Generated/FREERTOS/portable/GCC/portmacro.h **** BaseType_t xReturn;
 173:../Dave/Generated/FREERTOS/portable/GCC/portmacro.h **** 
 174:../Dave/Generated/FREERTOS/portable/GCC/portmacro.h **** 	/* Obtain the number of the currently executing interrupt. */
 175:../Dave/Generated/FREERTOS/portable/GCC/portmacro.h **** 	__asm volatile( "mrs %0, ipsr" : "=r"( ulCurrentInterrupt ) :: "memory" );
 176:../Dave/Generated/FREERTOS/portable/GCC/portmacro.h **** 
 177:../Dave/Generated/FREERTOS/portable/GCC/portmacro.h **** 	if( ulCurrentInterrupt == 0 )
 178:../Dave/Generated/FREERTOS/portable/GCC/portmacro.h **** 	{
 179:../Dave/Generated/FREERTOS/portable/GCC/portmacro.h **** 		xReturn = pdFALSE;
 180:../Dave/Generated/FREERTOS/portable/GCC/portmacro.h **** 	}
 181:../Dave/Generated/FREERTOS/portable/GCC/portmacro.h **** 	else
 182:../Dave/Generated/FREERTOS/portable/GCC/portmacro.h **** 	{
 183:../Dave/Generated/FREERTOS/portable/GCC/portmacro.h **** 		xReturn = pdTRUE;
 184:../Dave/Generated/FREERTOS/portable/GCC/portmacro.h **** 	}
 185:../Dave/Generated/FREERTOS/portable/GCC/portmacro.h **** 
 186:../Dave/Generated/FREERTOS/portable/GCC/portmacro.h **** 	return xReturn;
 187:../Dave/Generated/FREERTOS/portable/GCC/portmacro.h **** }
 188:../Dave/Generated/FREERTOS/portable/GCC/portmacro.h **** 
 189:../Dave/Generated/FREERTOS/portable/GCC/portmacro.h **** /*-----------------------------------------------------------*/
 190:../Dave/Generated/FREERTOS/portable/GCC/portmacro.h **** 
 191:../Dave/Generated/FREERTOS/portable/GCC/portmacro.h **** portFORCE_INLINE static void vPortRaiseBASEPRI( void )
 192:../Dave/Generated/FREERTOS/portable/GCC/portmacro.h **** {
 193:../Dave/Generated/FREERTOS/portable/GCC/portmacro.h **** uint32_t ulNewBASEPRI;
 194:../Dave/Generated/FREERTOS/portable/GCC/portmacro.h **** 
 195:../Dave/Generated/FREERTOS/portable/GCC/portmacro.h **** 	__asm volatile
  53              	 .loc 2 195 0 discriminator 1
  54              	
  55 0012 4FF0FC03 	 mov r3,#252
  56 0016 83F31188 	 msr basepri,r3
  57 001a BFF36F8F 	 isb 
  58 001e BFF34F8F 	 dsb 
  59              	
  60              	
  61              	 .thumb
  62 0022 BB61     	 str r3,[r7,#24]
  63              	.L3:
  64              	.LBE78:
  65              	.LBE77:
  66              	 .loc 1 227 0 discriminator 1
  67 0024 FEE7     	 b .L3
  68              	.L2:
 228:../Dave/Generated/FREERTOS/stream_buffer.c **** 		configASSERT( xTriggerLevelBytes <= xBufferSizeBytes );
  69              	 .loc 1 228 0
  70 0026 BA68     	 ldr r2,[r7,#8]
  71 0028 FB68     	 ldr r3,[r7,#12]
  72 002a 9A42     	 cmp r2,r3
  73 002c 09D9     	 bls .L4
  74              	.LBB79:
  75              	.LBB80:
  76              	 .loc 2 195 0 discriminator 1
  77              	
  78 002e 4FF0FC03 	 mov r3,#252
  79 0032 83F31188 	 msr basepri,r3
  80 0036 BFF36F8F 	 isb 
  81 003a BFF34F8F 	 dsb 
  82              	
  83              	
  84              	 .thumb
  85 003e 7B61     	 str r3,[r7,#20]
  86              	.L5:
  87              	.LBE80:
  88              	.LBE79:
  89              	 .loc 1 228 0 discriminator 2
  90 0040 FEE7     	 b .L5
  91              	.L4:
 229:../Dave/Generated/FREERTOS/stream_buffer.c **** 
 230:../Dave/Generated/FREERTOS/stream_buffer.c **** 		/* A trigger level of 0 would cause a waiting task to unblock even when
 231:../Dave/Generated/FREERTOS/stream_buffer.c **** 		the buffer was empty. */
 232:../Dave/Generated/FREERTOS/stream_buffer.c **** 		if( xTriggerLevelBytes == ( size_t ) 0 )
  92              	 .loc 1 232 0
  93 0042 BB68     	 ldr r3,[r7,#8]
  94 0044 002B     	 cmp r3,#0
  95 0046 01D1     	 bne .L6
 233:../Dave/Generated/FREERTOS/stream_buffer.c **** 		{
 234:../Dave/Generated/FREERTOS/stream_buffer.c **** 			xTriggerLevelBytes = ( size_t ) 1; /*lint !e9044 Parameter modified to ensure it doesn't have a 
  96              	 .loc 1 234 0
  97 0048 0123     	 movs r3,#1
  98 004a BB60     	 str r3,[r7,#8]
  99              	.L6:
 235:../Dave/Generated/FREERTOS/stream_buffer.c **** 		}
 236:../Dave/Generated/FREERTOS/stream_buffer.c **** 
 237:../Dave/Generated/FREERTOS/stream_buffer.c **** 		/* A stream buffer requires a StreamBuffer_t structure and a buffer.
 238:../Dave/Generated/FREERTOS/stream_buffer.c **** 		Both are allocated in a single call to pvPortMalloc().  The
 239:../Dave/Generated/FREERTOS/stream_buffer.c **** 		StreamBuffer_t structure is placed at the start of the allocated memory
 240:../Dave/Generated/FREERTOS/stream_buffer.c **** 		and the buffer follows immediately after.  The requested size is
 241:../Dave/Generated/FREERTOS/stream_buffer.c **** 		incremented so the free space is returned as the user would expect -
 242:../Dave/Generated/FREERTOS/stream_buffer.c **** 		this is a quirk of the implementation that means otherwise the free
 243:../Dave/Generated/FREERTOS/stream_buffer.c **** 		space would be reported as one byte smaller than would be logically
 244:../Dave/Generated/FREERTOS/stream_buffer.c **** 		expected. */
 245:../Dave/Generated/FREERTOS/stream_buffer.c **** 		xBufferSizeBytes++;
 100              	 .loc 1 245 0
 101 004c FB68     	 ldr r3,[r7,#12]
 102 004e 0133     	 adds r3,r3,#1
 103 0050 FB60     	 str r3,[r7,#12]
 246:../Dave/Generated/FREERTOS/stream_buffer.c **** 		pucAllocatedMemory = ( uint8_t * ) pvPortMalloc( xBufferSizeBytes + sizeof( StreamBuffer_t ) ); /
 104              	 .loc 1 246 0
 105 0052 FB68     	 ldr r3,[r7,#12]
 106 0054 2433     	 adds r3,r3,#36
 107 0056 1846     	 mov r0,r3
 108 0058 FFF7FEFF 	 bl pvPortMalloc
 109 005c F861     	 str r0,[r7,#28]
 247:../Dave/Generated/FREERTOS/stream_buffer.c **** 
 248:../Dave/Generated/FREERTOS/stream_buffer.c **** 		if( pucAllocatedMemory != NULL )
 110              	 .loc 1 248 0
 111 005e FB69     	 ldr r3,[r7,#28]
 112 0060 002B     	 cmp r3,#0
 113 0062 0AD0     	 beq .L7
 249:../Dave/Generated/FREERTOS/stream_buffer.c **** 		{
 250:../Dave/Generated/FREERTOS/stream_buffer.c **** 			prvInitialiseNewStreamBuffer( ( StreamBuffer_t * ) pucAllocatedMemory, /* Structure at the start
 114              	 .loc 1 250 0
 115 0064 FB69     	 ldr r3,[r7,#28]
 116 0066 03F12402 	 add r2,r3,#36
 117 006a 7B68     	 ldr r3,[r7,#4]
 118 006c 0093     	 str r3,[sp]
 119 006e F869     	 ldr r0,[r7,#28]
 120 0070 1146     	 mov r1,r2
 121 0072 FA68     	 ldr r2,[r7,#12]
 122 0074 BB68     	 ldr r3,[r7,#8]
 123 0076 FFF7FEFF 	 bl prvInitialiseNewStreamBuffer
 124              	.L7:
 251:../Dave/Generated/FREERTOS/stream_buffer.c **** 										   pucAllocatedMemory + sizeof( StreamBuffer_t ),  /* Storage area follows. */ /*lint !e9
 252:../Dave/Generated/FREERTOS/stream_buffer.c **** 										   xBufferSizeBytes,
 253:../Dave/Generated/FREERTOS/stream_buffer.c **** 										   xTriggerLevelBytes,
 254:../Dave/Generated/FREERTOS/stream_buffer.c **** 										   xIsMessageBuffer );
 255:../Dave/Generated/FREERTOS/stream_buffer.c **** 
 256:../Dave/Generated/FREERTOS/stream_buffer.c **** 			traceSTREAM_BUFFER_CREATE( ( ( StreamBuffer_t * ) pucAllocatedMemory ), xIsMessageBuffer );
 257:../Dave/Generated/FREERTOS/stream_buffer.c **** 		}
 258:../Dave/Generated/FREERTOS/stream_buffer.c **** 		else
 259:../Dave/Generated/FREERTOS/stream_buffer.c **** 		{
 260:../Dave/Generated/FREERTOS/stream_buffer.c **** 			traceSTREAM_BUFFER_CREATE_FAILED( xIsMessageBuffer );
 261:../Dave/Generated/FREERTOS/stream_buffer.c **** 		}
 262:../Dave/Generated/FREERTOS/stream_buffer.c **** 
 263:../Dave/Generated/FREERTOS/stream_buffer.c **** 		return ( StreamBufferHandle_t * ) pucAllocatedMemory; /*lint !e9087 !e826 Safe cast as allocated 
 125              	 .loc 1 263 0
 126 007a FB69     	 ldr r3,[r7,#28]
 264:../Dave/Generated/FREERTOS/stream_buffer.c **** 	}
 127              	 .loc 1 264 0
 128 007c 1846     	 mov r0,r3
 129 007e 2037     	 adds r7,r7,#32
 130              	.LCFI3:
 131              	 .cfi_def_cfa_offset 8
 132 0080 BD46     	 mov sp,r7
 133              	.LCFI4:
 134              	 .cfi_def_cfa_register 13
 135              	 
 136 0082 80BD     	 pop {r7,pc}
 137              	 .cfi_endproc
 138              	.LFE135:
 140              	 .section .text.vStreamBufferDelete,"ax",%progbits
 141              	 .align 2
 142              	 .global vStreamBufferDelete
 143              	 .thumb
 144              	 .thumb_func
 146              	vStreamBufferDelete:
 147              	.LFB136:
 265:../Dave/Generated/FREERTOS/stream_buffer.c **** 
 266:../Dave/Generated/FREERTOS/stream_buffer.c **** #endif /* configSUPPORT_DYNAMIC_ALLOCATION */
 267:../Dave/Generated/FREERTOS/stream_buffer.c **** /*-----------------------------------------------------------*/
 268:../Dave/Generated/FREERTOS/stream_buffer.c **** 
 269:../Dave/Generated/FREERTOS/stream_buffer.c **** #if( configSUPPORT_STATIC_ALLOCATION == 1 )
 270:../Dave/Generated/FREERTOS/stream_buffer.c **** 
 271:../Dave/Generated/FREERTOS/stream_buffer.c **** 	StreamBufferHandle_t xStreamBufferGenericCreateStatic( size_t xBufferSizeBytes,
 272:../Dave/Generated/FREERTOS/stream_buffer.c **** 														   size_t xTriggerLevelBytes,
 273:../Dave/Generated/FREERTOS/stream_buffer.c **** 														   BaseType_t xIsMessageBuffer,
 274:../Dave/Generated/FREERTOS/stream_buffer.c **** 														   uint8_t * const pucStreamBufferStorageArea,
 275:../Dave/Generated/FREERTOS/stream_buffer.c **** 														   StaticStreamBuffer_t * const pxStaticStreamBuffer )
 276:../Dave/Generated/FREERTOS/stream_buffer.c **** 	{
 277:../Dave/Generated/FREERTOS/stream_buffer.c **** 	StreamBuffer_t * const pxStreamBuffer = ( StreamBuffer_t * ) pxStaticStreamBuffer; /*lint !e740 !e
 278:../Dave/Generated/FREERTOS/stream_buffer.c **** 	StreamBufferHandle_t xReturn;
 279:../Dave/Generated/FREERTOS/stream_buffer.c **** 
 280:../Dave/Generated/FREERTOS/stream_buffer.c **** 		configASSERT( pucStreamBufferStorageArea );
 281:../Dave/Generated/FREERTOS/stream_buffer.c **** 		configASSERT( pxStaticStreamBuffer );
 282:../Dave/Generated/FREERTOS/stream_buffer.c **** 		configASSERT( xTriggerLevelBytes <= xBufferSizeBytes );
 283:../Dave/Generated/FREERTOS/stream_buffer.c **** 
 284:../Dave/Generated/FREERTOS/stream_buffer.c **** 		/* A trigger level of 0 would cause a waiting task to unblock even when
 285:../Dave/Generated/FREERTOS/stream_buffer.c **** 		the buffer was empty. */
 286:../Dave/Generated/FREERTOS/stream_buffer.c **** 		if( xTriggerLevelBytes == ( size_t ) 0 )
 287:../Dave/Generated/FREERTOS/stream_buffer.c **** 		{
 288:../Dave/Generated/FREERTOS/stream_buffer.c **** 			xTriggerLevelBytes = ( size_t ) 1; /*lint !e9044 Function parameter deliberately modified to ens
 289:../Dave/Generated/FREERTOS/stream_buffer.c **** 		}
 290:../Dave/Generated/FREERTOS/stream_buffer.c **** 
 291:../Dave/Generated/FREERTOS/stream_buffer.c **** 		/* In case the stream buffer is going to be used as a message buffer
 292:../Dave/Generated/FREERTOS/stream_buffer.c **** 		(that is, it will hold discrete messages with a little meta data that
 293:../Dave/Generated/FREERTOS/stream_buffer.c **** 		says how big the next message is) check the buffer will be large enough
 294:../Dave/Generated/FREERTOS/stream_buffer.c **** 		to hold at least one message. */
 295:../Dave/Generated/FREERTOS/stream_buffer.c **** 		configASSERT( xBufferSizeBytes > sbBYTES_TO_STORE_MESSAGE_LENGTH );
 296:../Dave/Generated/FREERTOS/stream_buffer.c **** 
 297:../Dave/Generated/FREERTOS/stream_buffer.c **** 		#if( configASSERT_DEFINED == 1 )
 298:../Dave/Generated/FREERTOS/stream_buffer.c **** 		{
 299:../Dave/Generated/FREERTOS/stream_buffer.c **** 			/* Sanity check that the size of the structure used to declare a
 300:../Dave/Generated/FREERTOS/stream_buffer.c **** 			variable of type StaticStreamBuffer_t equals the size of the real
 301:../Dave/Generated/FREERTOS/stream_buffer.c **** 			message buffer structure. */
 302:../Dave/Generated/FREERTOS/stream_buffer.c **** 			volatile size_t xSize = sizeof( StaticStreamBuffer_t );
 303:../Dave/Generated/FREERTOS/stream_buffer.c **** 			configASSERT( xSize == sizeof( StreamBuffer_t ) );
 304:../Dave/Generated/FREERTOS/stream_buffer.c **** 		}
 305:../Dave/Generated/FREERTOS/stream_buffer.c **** 		#endif /* configASSERT_DEFINED */
 306:../Dave/Generated/FREERTOS/stream_buffer.c **** 
 307:../Dave/Generated/FREERTOS/stream_buffer.c **** 		if( ( pucStreamBufferStorageArea != NULL ) && ( pxStaticStreamBuffer != NULL ) )
 308:../Dave/Generated/FREERTOS/stream_buffer.c **** 		{
 309:../Dave/Generated/FREERTOS/stream_buffer.c **** 			prvInitialiseNewStreamBuffer( pxStreamBuffer,
 310:../Dave/Generated/FREERTOS/stream_buffer.c **** 										  pucStreamBufferStorageArea,
 311:../Dave/Generated/FREERTOS/stream_buffer.c **** 										  xBufferSizeBytes,
 312:../Dave/Generated/FREERTOS/stream_buffer.c **** 										  xTriggerLevelBytes,
 313:../Dave/Generated/FREERTOS/stream_buffer.c **** 										  xIsMessageBuffer );
 314:../Dave/Generated/FREERTOS/stream_buffer.c **** 
 315:../Dave/Generated/FREERTOS/stream_buffer.c **** 			/* Remember this was statically allocated in case it is ever deleted
 316:../Dave/Generated/FREERTOS/stream_buffer.c **** 			again. */
 317:../Dave/Generated/FREERTOS/stream_buffer.c **** 			pxStreamBuffer->ucFlags |= sbFLAGS_IS_STATICALLY_ALLOCATED;
 318:../Dave/Generated/FREERTOS/stream_buffer.c **** 
 319:../Dave/Generated/FREERTOS/stream_buffer.c **** 			traceSTREAM_BUFFER_CREATE( pxStreamBuffer, xIsMessageBuffer );
 320:../Dave/Generated/FREERTOS/stream_buffer.c **** 
 321:../Dave/Generated/FREERTOS/stream_buffer.c **** 			xReturn = ( StreamBufferHandle_t ) pxStaticStreamBuffer; /*lint !e9087 Data hiding requires cast
 322:../Dave/Generated/FREERTOS/stream_buffer.c **** 		}
 323:../Dave/Generated/FREERTOS/stream_buffer.c **** 		else
 324:../Dave/Generated/FREERTOS/stream_buffer.c **** 		{
 325:../Dave/Generated/FREERTOS/stream_buffer.c **** 			xReturn = NULL;
 326:../Dave/Generated/FREERTOS/stream_buffer.c **** 			traceSTREAM_BUFFER_CREATE_STATIC_FAILED( xReturn, xIsMessageBuffer );
 327:../Dave/Generated/FREERTOS/stream_buffer.c **** 		}
 328:../Dave/Generated/FREERTOS/stream_buffer.c **** 
 329:../Dave/Generated/FREERTOS/stream_buffer.c **** 		return xReturn;
 330:../Dave/Generated/FREERTOS/stream_buffer.c **** 	}
 331:../Dave/Generated/FREERTOS/stream_buffer.c **** 
 332:../Dave/Generated/FREERTOS/stream_buffer.c **** #endif /* ( configSUPPORT_STATIC_ALLOCATION == 1 ) */
 333:../Dave/Generated/FREERTOS/stream_buffer.c **** /*-----------------------------------------------------------*/
 334:../Dave/Generated/FREERTOS/stream_buffer.c **** 
 335:../Dave/Generated/FREERTOS/stream_buffer.c **** void vStreamBufferDelete( StreamBufferHandle_t xStreamBuffer )
 336:../Dave/Generated/FREERTOS/stream_buffer.c **** {
 148              	 .loc 1 336 0
 149              	 .cfi_startproc
 150              	 
 151              	 
 152 0000 80B5     	 push {r7,lr}
 153              	.LCFI5:
 154              	 .cfi_def_cfa_offset 8
 155              	 .cfi_offset 7,-8
 156              	 .cfi_offset 14,-4
 157 0002 84B0     	 sub sp,sp,#16
 158              	.LCFI6:
 159              	 .cfi_def_cfa_offset 24
 160 0004 00AF     	 add r7,sp,#0
 161              	.LCFI7:
 162              	 .cfi_def_cfa_register 7
 163 0006 7860     	 str r0,[r7,#4]
 337:../Dave/Generated/FREERTOS/stream_buffer.c **** StreamBuffer_t * pxStreamBuffer = ( StreamBuffer_t * ) xStreamBuffer; /*lint !e9087 !e9079 Safe cas
 164              	 .loc 1 337 0
 165 0008 7B68     	 ldr r3,[r7,#4]
 166 000a FB60     	 str r3,[r7,#12]
 338:../Dave/Generated/FREERTOS/stream_buffer.c **** 
 339:../Dave/Generated/FREERTOS/stream_buffer.c **** 	configASSERT( pxStreamBuffer );
 167              	 .loc 1 339 0
 168 000c FB68     	 ldr r3,[r7,#12]
 169 000e 002B     	 cmp r3,#0
 170 0010 09D1     	 bne .L10
 171              	.LBB81:
 172              	.LBB82:
 173              	 .loc 2 195 0 discriminator 1
 174              	
 175 0012 4FF0FC03 	 mov r3,#252
 176 0016 83F31188 	 msr basepri,r3
 177 001a BFF36F8F 	 isb 
 178 001e BFF34F8F 	 dsb 
 179              	
 180              	
 181              	 .thumb
 182 0022 BB60     	 str r3,[r7,#8]
 183              	.L11:
 184              	.LBE82:
 185              	.LBE81:
 186              	 .loc 1 339 0 discriminator 1
 187 0024 FEE7     	 b .L11
 188              	.L10:
 340:../Dave/Generated/FREERTOS/stream_buffer.c **** 
 341:../Dave/Generated/FREERTOS/stream_buffer.c **** 	traceSTREAM_BUFFER_DELETE( xStreamBuffer );
 342:../Dave/Generated/FREERTOS/stream_buffer.c **** 
 343:../Dave/Generated/FREERTOS/stream_buffer.c **** 	if( ( pxStreamBuffer->ucFlags & sbFLAGS_IS_STATICALLY_ALLOCATED ) == ( uint8_t ) pdFALSE )
 189              	 .loc 1 343 0
 190 0026 FB68     	 ldr r3,[r7,#12]
 191 0028 1B7F     	 ldrb r3,[r3,#28]
 192 002a 03F00203 	 and r3,r3,#2
 193 002e 002B     	 cmp r3,#0
 194 0030 03D1     	 bne .L12
 344:../Dave/Generated/FREERTOS/stream_buffer.c **** 	{
 345:../Dave/Generated/FREERTOS/stream_buffer.c **** 		#if( configSUPPORT_DYNAMIC_ALLOCATION == 1 )
 346:../Dave/Generated/FREERTOS/stream_buffer.c **** 		{
 347:../Dave/Generated/FREERTOS/stream_buffer.c **** 			/* Both the structure and the buffer were allocated using a single call
 348:../Dave/Generated/FREERTOS/stream_buffer.c **** 			to pvPortMalloc(), hence only one call to vPortFree() is required. */
 349:../Dave/Generated/FREERTOS/stream_buffer.c **** 			vPortFree( ( void * ) pxStreamBuffer ); /*lint !e9087 Standard free() semantics require void *, 
 195              	 .loc 1 349 0
 196 0032 F868     	 ldr r0,[r7,#12]
 197 0034 FFF7FEFF 	 bl vPortFree
 198 0038 04E0     	 b .L9
 199              	.L12:
 350:../Dave/Generated/FREERTOS/stream_buffer.c **** 		}
 351:../Dave/Generated/FREERTOS/stream_buffer.c **** 		#else
 352:../Dave/Generated/FREERTOS/stream_buffer.c **** 		{
 353:../Dave/Generated/FREERTOS/stream_buffer.c **** 			/* Should not be possible to get here, ucFlags must be corrupt.
 354:../Dave/Generated/FREERTOS/stream_buffer.c **** 			Force an assert. */
 355:../Dave/Generated/FREERTOS/stream_buffer.c **** 			configASSERT( xStreamBuffer == ( StreamBufferHandle_t ) ~0 );
 356:../Dave/Generated/FREERTOS/stream_buffer.c **** 		}
 357:../Dave/Generated/FREERTOS/stream_buffer.c **** 		#endif
 358:../Dave/Generated/FREERTOS/stream_buffer.c **** 	}
 359:../Dave/Generated/FREERTOS/stream_buffer.c **** 	else
 360:../Dave/Generated/FREERTOS/stream_buffer.c **** 	{
 361:../Dave/Generated/FREERTOS/stream_buffer.c **** 		/* The structure and buffer were not allocated dynamically and cannot be
 362:../Dave/Generated/FREERTOS/stream_buffer.c **** 		freed - just scrub the structure so future use will assert. */
 363:../Dave/Generated/FREERTOS/stream_buffer.c **** 		memset( pxStreamBuffer, 0x00, sizeof( StreamBuffer_t ) );
 200              	 .loc 1 363 0
 201 003a F868     	 ldr r0,[r7,#12]
 202 003c 0021     	 movs r1,#0
 203 003e 2422     	 movs r2,#36
 204 0040 FFF7FEFF 	 bl memset
 205              	.L9:
 364:../Dave/Generated/FREERTOS/stream_buffer.c **** 	}
 365:../Dave/Generated/FREERTOS/stream_buffer.c **** }
 206              	 .loc 1 365 0
 207 0044 1037     	 adds r7,r7,#16
 208              	.LCFI8:
 209              	 .cfi_def_cfa_offset 8
 210 0046 BD46     	 mov sp,r7
 211              	.LCFI9:
 212              	 .cfi_def_cfa_register 13
 213              	 
 214 0048 80BD     	 pop {r7,pc}
 215              	 .cfi_endproc
 216              	.LFE136:
 218 004a 00BF     	 .section .text.xStreamBufferReset,"ax",%progbits
 219              	 .align 2
 220              	 .global xStreamBufferReset
 221              	 .thumb
 222              	 .thumb_func
 224              	xStreamBufferReset:
 225              	.LFB137:
 366:../Dave/Generated/FREERTOS/stream_buffer.c **** /*-----------------------------------------------------------*/
 367:../Dave/Generated/FREERTOS/stream_buffer.c **** 
 368:../Dave/Generated/FREERTOS/stream_buffer.c **** BaseType_t xStreamBufferReset( StreamBufferHandle_t xStreamBuffer )
 369:../Dave/Generated/FREERTOS/stream_buffer.c **** {
 226              	 .loc 1 369 0
 227              	 .cfi_startproc
 228              	 
 229              	 
 230 0000 90B5     	 push {r4,r7,lr}
 231              	.LCFI10:
 232              	 .cfi_def_cfa_offset 12
 233              	 .cfi_offset 4,-12
 234              	 .cfi_offset 7,-8
 235              	 .cfi_offset 14,-4
 236 0002 8BB0     	 sub sp,sp,#44
 237              	.LCFI11:
 238              	 .cfi_def_cfa_offset 56
 239 0004 02AF     	 add r7,sp,#8
 240              	.LCFI12:
 241              	 .cfi_def_cfa 7,48
 242 0006 7860     	 str r0,[r7,#4]
 370:../Dave/Generated/FREERTOS/stream_buffer.c **** StreamBuffer_t * const pxStreamBuffer = ( StreamBuffer_t * ) xStreamBuffer; /*lint !e9087 !e9079 Sa
 243              	 .loc 1 370 0
 244 0008 7B68     	 ldr r3,[r7,#4]
 245 000a 7B61     	 str r3,[r7,#20]
 371:../Dave/Generated/FREERTOS/stream_buffer.c **** BaseType_t xReturn = pdFAIL, xIsMessageBuffer;
 246              	 .loc 1 371 0
 247 000c 0023     	 movs r3,#0
 248 000e FB61     	 str r3,[r7,#28]
 372:../Dave/Generated/FREERTOS/stream_buffer.c **** 
 373:../Dave/Generated/FREERTOS/stream_buffer.c **** #if( configUSE_TRACE_FACILITY == 1 )
 374:../Dave/Generated/FREERTOS/stream_buffer.c **** 	UBaseType_t uxStreamBufferNumber;
 375:../Dave/Generated/FREERTOS/stream_buffer.c **** #endif
 376:../Dave/Generated/FREERTOS/stream_buffer.c **** 
 377:../Dave/Generated/FREERTOS/stream_buffer.c **** 	configASSERT( pxStreamBuffer );
 249              	 .loc 1 377 0
 250 0010 7B69     	 ldr r3,[r7,#20]
 251 0012 002B     	 cmp r3,#0
 252 0014 09D1     	 bne .L15
 253              	.LBB83:
 254              	.LBB84:
 255              	 .loc 2 195 0 discriminator 1
 256              	
 257 0016 4FF0FC03 	 mov r3,#252
 258 001a 83F31188 	 msr basepri,r3
 259 001e BFF36F8F 	 isb 
 260 0022 BFF34F8F 	 dsb 
 261              	
 262              	
 263              	 .thumb
 264 0026 FB60     	 str r3,[r7,#12]
 265              	.L16:
 266              	.LBE84:
 267              	.LBE83:
 268              	 .loc 1 377 0 discriminator 1
 269 0028 FEE7     	 b .L16
 270              	.L15:
 378:../Dave/Generated/FREERTOS/stream_buffer.c **** 
 379:../Dave/Generated/FREERTOS/stream_buffer.c **** 	#if( configUSE_TRACE_FACILITY == 1 )
 380:../Dave/Generated/FREERTOS/stream_buffer.c **** 	{
 381:../Dave/Generated/FREERTOS/stream_buffer.c **** 		/* Store the stream buffer number so it can be restored after the
 382:../Dave/Generated/FREERTOS/stream_buffer.c **** 		reset. */
 383:../Dave/Generated/FREERTOS/stream_buffer.c **** 		uxStreamBufferNumber = pxStreamBuffer->uxStreamBufferNumber;
 271              	 .loc 1 383 0
 272 002a 7B69     	 ldr r3,[r7,#20]
 273 002c 1B6A     	 ldr r3,[r3,#32]
 274 002e 3B61     	 str r3,[r7,#16]
 384:../Dave/Generated/FREERTOS/stream_buffer.c **** 	}
 385:../Dave/Generated/FREERTOS/stream_buffer.c **** 	#endif
 386:../Dave/Generated/FREERTOS/stream_buffer.c **** 
 387:../Dave/Generated/FREERTOS/stream_buffer.c **** 	/* Can only reset a message buffer if there are no tasks blocked on it. */
 388:../Dave/Generated/FREERTOS/stream_buffer.c **** 	if( pxStreamBuffer->xTaskWaitingToReceive == NULL )
 275              	 .loc 1 388 0
 276 0030 7B69     	 ldr r3,[r7,#20]
 277 0032 1B69     	 ldr r3,[r3,#16]
 278 0034 002B     	 cmp r3,#0
 279 0036 1FD1     	 bne .L17
 389:../Dave/Generated/FREERTOS/stream_buffer.c **** 	{
 390:../Dave/Generated/FREERTOS/stream_buffer.c **** 		if( pxStreamBuffer->xTaskWaitingToSend == NULL )
 280              	 .loc 1 390 0
 281 0038 7B69     	 ldr r3,[r7,#20]
 282 003a 5B69     	 ldr r3,[r3,#20]
 283 003c 002B     	 cmp r3,#0
 284 003e 1BD1     	 bne .L17
 391:../Dave/Generated/FREERTOS/stream_buffer.c **** 		{
 392:../Dave/Generated/FREERTOS/stream_buffer.c **** 			if( ( pxStreamBuffer->ucFlags & sbFLAGS_IS_MESSAGE_BUFFER ) != ( uint8_t ) 0 )
 285              	 .loc 1 392 0
 286 0040 7B69     	 ldr r3,[r7,#20]
 287 0042 1B7F     	 ldrb r3,[r3,#28]
 288 0044 03F00103 	 and r3,r3,#1
 289 0048 002B     	 cmp r3,#0
 290 004a 02D0     	 beq .L18
 393:../Dave/Generated/FREERTOS/stream_buffer.c **** 			{
 394:../Dave/Generated/FREERTOS/stream_buffer.c **** 				xIsMessageBuffer = pdTRUE;
 291              	 .loc 1 394 0
 292 004c 0123     	 movs r3,#1
 293 004e BB61     	 str r3,[r7,#24]
 294 0050 01E0     	 b .L19
 295              	.L18:
 395:../Dave/Generated/FREERTOS/stream_buffer.c **** 			}
 396:../Dave/Generated/FREERTOS/stream_buffer.c **** 			else
 397:../Dave/Generated/FREERTOS/stream_buffer.c **** 			{
 398:../Dave/Generated/FREERTOS/stream_buffer.c **** 				xIsMessageBuffer = pdFALSE;
 296              	 .loc 1 398 0
 297 0052 0023     	 movs r3,#0
 298 0054 BB61     	 str r3,[r7,#24]
 299              	.L19:
 399:../Dave/Generated/FREERTOS/stream_buffer.c **** 			}
 400:../Dave/Generated/FREERTOS/stream_buffer.c **** 
 401:../Dave/Generated/FREERTOS/stream_buffer.c **** 			prvInitialiseNewStreamBuffer( pxStreamBuffer,
 300              	 .loc 1 401 0
 301 0056 7B69     	 ldr r3,[r7,#20]
 302 0058 9969     	 ldr r1,[r3,#24]
 303 005a 7B69     	 ldr r3,[r7,#20]
 304 005c 9A68     	 ldr r2,[r3,#8]
 305 005e 7B69     	 ldr r3,[r7,#20]
 306 0060 DC68     	 ldr r4,[r3,#12]
 307 0062 BB69     	 ldr r3,[r7,#24]
 308 0064 0093     	 str r3,[sp]
 309 0066 7869     	 ldr r0,[r7,#20]
 310 0068 2346     	 mov r3,r4
 311 006a FFF7FEFF 	 bl prvInitialiseNewStreamBuffer
 402:../Dave/Generated/FREERTOS/stream_buffer.c **** 										  pxStreamBuffer->pucBuffer,
 403:../Dave/Generated/FREERTOS/stream_buffer.c **** 										  pxStreamBuffer->xLength,
 404:../Dave/Generated/FREERTOS/stream_buffer.c **** 										  pxStreamBuffer->xTriggerLevelBytes,
 405:../Dave/Generated/FREERTOS/stream_buffer.c **** 										  xIsMessageBuffer );
 406:../Dave/Generated/FREERTOS/stream_buffer.c **** 			xReturn = pdPASS;
 312              	 .loc 1 406 0
 313 006e 0123     	 movs r3,#1
 314 0070 FB61     	 str r3,[r7,#28]
 407:../Dave/Generated/FREERTOS/stream_buffer.c **** 
 408:../Dave/Generated/FREERTOS/stream_buffer.c **** 			#if( configUSE_TRACE_FACILITY == 1 )
 409:../Dave/Generated/FREERTOS/stream_buffer.c **** 			{
 410:../Dave/Generated/FREERTOS/stream_buffer.c **** 				pxStreamBuffer->uxStreamBufferNumber = uxStreamBufferNumber;
 315              	 .loc 1 410 0
 316 0072 7B69     	 ldr r3,[r7,#20]
 317 0074 3A69     	 ldr r2,[r7,#16]
 318 0076 1A62     	 str r2,[r3,#32]
 319              	.L17:
 411:../Dave/Generated/FREERTOS/stream_buffer.c **** 			}
 412:../Dave/Generated/FREERTOS/stream_buffer.c **** 			#endif
 413:../Dave/Generated/FREERTOS/stream_buffer.c **** 
 414:../Dave/Generated/FREERTOS/stream_buffer.c **** 			traceSTREAM_BUFFER_RESET( xStreamBuffer );
 415:../Dave/Generated/FREERTOS/stream_buffer.c **** 		}
 416:../Dave/Generated/FREERTOS/stream_buffer.c **** 	}
 417:../Dave/Generated/FREERTOS/stream_buffer.c **** 
 418:../Dave/Generated/FREERTOS/stream_buffer.c **** 	return xReturn;
 320              	 .loc 1 418 0
 321 0078 FB69     	 ldr r3,[r7,#28]
 419:../Dave/Generated/FREERTOS/stream_buffer.c **** }
 322              	 .loc 1 419 0
 323 007a 1846     	 mov r0,r3
 324 007c 2437     	 adds r7,r7,#36
 325              	.LCFI13:
 326              	 .cfi_def_cfa_offset 12
 327 007e BD46     	 mov sp,r7
 328              	.LCFI14:
 329              	 .cfi_def_cfa_register 13
 330              	 
 331 0080 90BD     	 pop {r4,r7,pc}
 332              	 .cfi_endproc
 333              	.LFE137:
 335 0082 00BF     	 .section .text.xStreamBufferSetTriggerLevel,"ax",%progbits
 336              	 .align 2
 337              	 .global xStreamBufferSetTriggerLevel
 338              	 .thumb
 339              	 .thumb_func
 341              	xStreamBufferSetTriggerLevel:
 342              	.LFB138:
 420:../Dave/Generated/FREERTOS/stream_buffer.c **** /*-----------------------------------------------------------*/
 421:../Dave/Generated/FREERTOS/stream_buffer.c **** 
 422:../Dave/Generated/FREERTOS/stream_buffer.c **** BaseType_t xStreamBufferSetTriggerLevel( StreamBufferHandle_t xStreamBuffer, size_t xTriggerLevel )
 423:../Dave/Generated/FREERTOS/stream_buffer.c **** {
 343              	 .loc 1 423 0
 344              	 .cfi_startproc
 345              	 
 346              	 
 347              	 
 348 0000 80B4     	 push {r7}
 349              	.LCFI15:
 350              	 .cfi_def_cfa_offset 4
 351              	 .cfi_offset 7,-4
 352 0002 87B0     	 sub sp,sp,#28
 353              	.LCFI16:
 354              	 .cfi_def_cfa_offset 32
 355 0004 00AF     	 add r7,sp,#0
 356              	.LCFI17:
 357              	 .cfi_def_cfa_register 7
 358 0006 7860     	 str r0,[r7,#4]
 359 0008 3960     	 str r1,[r7]
 424:../Dave/Generated/FREERTOS/stream_buffer.c **** StreamBuffer_t * const pxStreamBuffer = ( StreamBuffer_t * ) xStreamBuffer; /*lint !e9087 !e9079 Sa
 360              	 .loc 1 424 0
 361 000a 7B68     	 ldr r3,[r7,#4]
 362 000c 3B61     	 str r3,[r7,#16]
 425:../Dave/Generated/FREERTOS/stream_buffer.c **** BaseType_t xReturn;
 426:../Dave/Generated/FREERTOS/stream_buffer.c **** 
 427:../Dave/Generated/FREERTOS/stream_buffer.c **** 	configASSERT( pxStreamBuffer );
 363              	 .loc 1 427 0
 364 000e 3B69     	 ldr r3,[r7,#16]
 365 0010 002B     	 cmp r3,#0
 366 0012 09D1     	 bne .L22
 367              	.LBB85:
 368              	.LBB86:
 369              	 .loc 2 195 0 discriminator 1
 370              	
 371 0014 4FF0FC03 	 mov r3,#252
 372 0018 83F31188 	 msr basepri,r3
 373 001c BFF36F8F 	 isb 
 374 0020 BFF34F8F 	 dsb 
 375              	
 376              	
 377              	 .thumb
 378 0024 FB60     	 str r3,[r7,#12]
 379              	.L23:
 380              	.LBE86:
 381              	.LBE85:
 382              	 .loc 1 427 0 discriminator 1
 383 0026 FEE7     	 b .L23
 384              	.L22:
 428:../Dave/Generated/FREERTOS/stream_buffer.c **** 
 429:../Dave/Generated/FREERTOS/stream_buffer.c **** 	/* It is not valid for the trigger level to be 0. */
 430:../Dave/Generated/FREERTOS/stream_buffer.c **** 	if( xTriggerLevel == ( size_t ) 0 )
 385              	 .loc 1 430 0
 386 0028 3B68     	 ldr r3,[r7]
 387 002a 002B     	 cmp r3,#0
 388 002c 01D1     	 bne .L24
 431:../Dave/Generated/FREERTOS/stream_buffer.c **** 	{
 432:../Dave/Generated/FREERTOS/stream_buffer.c **** 		xTriggerLevel = ( size_t ) 1; /*lint !e9044 Parameter modified to ensure it doesn't have a danger
 389              	 .loc 1 432 0
 390 002e 0123     	 movs r3,#1
 391 0030 3B60     	 str r3,[r7]
 392              	.L24:
 433:../Dave/Generated/FREERTOS/stream_buffer.c **** 	}
 434:../Dave/Generated/FREERTOS/stream_buffer.c **** 
 435:../Dave/Generated/FREERTOS/stream_buffer.c **** 	/* The trigger level is the number of bytes that must be in the stream
 436:../Dave/Generated/FREERTOS/stream_buffer.c **** 	buffer before a task that is waiting for data is unblocked. */
 437:../Dave/Generated/FREERTOS/stream_buffer.c **** 	if( xTriggerLevel <= pxStreamBuffer->xLength )
 393              	 .loc 1 437 0
 394 0032 3B69     	 ldr r3,[r7,#16]
 395 0034 9A68     	 ldr r2,[r3,#8]
 396 0036 3B68     	 ldr r3,[r7]
 397 0038 9A42     	 cmp r2,r3
 398 003a 05D3     	 bcc .L25
 438:../Dave/Generated/FREERTOS/stream_buffer.c **** 	{
 439:../Dave/Generated/FREERTOS/stream_buffer.c **** 		pxStreamBuffer->xTriggerLevelBytes = xTriggerLevel;
 399              	 .loc 1 439 0
 400 003c 3B69     	 ldr r3,[r7,#16]
 401 003e 3A68     	 ldr r2,[r7]
 402 0040 DA60     	 str r2,[r3,#12]
 440:../Dave/Generated/FREERTOS/stream_buffer.c **** 		xReturn = pdPASS;
 403              	 .loc 1 440 0
 404 0042 0123     	 movs r3,#1
 405 0044 7B61     	 str r3,[r7,#20]
 406 0046 01E0     	 b .L26
 407              	.L25:
 441:../Dave/Generated/FREERTOS/stream_buffer.c **** 	}
 442:../Dave/Generated/FREERTOS/stream_buffer.c **** 	else
 443:../Dave/Generated/FREERTOS/stream_buffer.c **** 	{
 444:../Dave/Generated/FREERTOS/stream_buffer.c **** 		xReturn = pdFALSE;
 408              	 .loc 1 444 0
 409 0048 0023     	 movs r3,#0
 410 004a 7B61     	 str r3,[r7,#20]
 411              	.L26:
 445:../Dave/Generated/FREERTOS/stream_buffer.c **** 	}
 446:../Dave/Generated/FREERTOS/stream_buffer.c **** 
 447:../Dave/Generated/FREERTOS/stream_buffer.c **** 	return xReturn;
 412              	 .loc 1 447 0
 413 004c 7B69     	 ldr r3,[r7,#20]
 448:../Dave/Generated/FREERTOS/stream_buffer.c **** }
 414              	 .loc 1 448 0
 415 004e 1846     	 mov r0,r3
 416 0050 1C37     	 adds r7,r7,#28
 417              	.LCFI18:
 418              	 .cfi_def_cfa_offset 4
 419 0052 BD46     	 mov sp,r7
 420              	.LCFI19:
 421              	 .cfi_def_cfa_register 13
 422              	 
 423 0054 5DF8047B 	 ldr r7,[sp],#4
 424              	.LCFI20:
 425              	 .cfi_restore 7
 426              	 .cfi_def_cfa_offset 0
 427 0058 7047     	 bx lr
 428              	 .cfi_endproc
 429              	.LFE138:
 431 005a 00BF     	 .section .text.xStreamBufferSpacesAvailable,"ax",%progbits
 432              	 .align 2
 433              	 .global xStreamBufferSpacesAvailable
 434              	 .thumb
 435              	 .thumb_func
 437              	xStreamBufferSpacesAvailable:
 438              	.LFB139:
 449:../Dave/Generated/FREERTOS/stream_buffer.c **** /*-----------------------------------------------------------*/
 450:../Dave/Generated/FREERTOS/stream_buffer.c **** 
 451:../Dave/Generated/FREERTOS/stream_buffer.c **** size_t xStreamBufferSpacesAvailable( StreamBufferHandle_t xStreamBuffer )
 452:../Dave/Generated/FREERTOS/stream_buffer.c **** {
 439              	 .loc 1 452 0
 440              	 .cfi_startproc
 441              	 
 442              	 
 443              	 
 444 0000 80B4     	 push {r7}
 445              	.LCFI21:
 446              	 .cfi_def_cfa_offset 4
 447              	 .cfi_offset 7,-4
 448 0002 87B0     	 sub sp,sp,#28
 449              	.LCFI22:
 450              	 .cfi_def_cfa_offset 32
 451 0004 00AF     	 add r7,sp,#0
 452              	.LCFI23:
 453              	 .cfi_def_cfa_register 7
 454 0006 7860     	 str r0,[r7,#4]
 453:../Dave/Generated/FREERTOS/stream_buffer.c **** const StreamBuffer_t * const pxStreamBuffer = ( StreamBuffer_t * ) xStreamBuffer; /*lint !e9087 !e9
 455              	 .loc 1 453 0
 456 0008 7B68     	 ldr r3,[r7,#4]
 457 000a 3B61     	 str r3,[r7,#16]
 454:../Dave/Generated/FREERTOS/stream_buffer.c **** size_t xSpace;
 455:../Dave/Generated/FREERTOS/stream_buffer.c **** 
 456:../Dave/Generated/FREERTOS/stream_buffer.c **** 	configASSERT( pxStreamBuffer );
 458              	 .loc 1 456 0
 459 000c 3B69     	 ldr r3,[r7,#16]
 460 000e 002B     	 cmp r3,#0
 461 0010 09D1     	 bne .L29
 462              	.LBB87:
 463              	.LBB88:
 464              	 .loc 2 195 0 discriminator 1
 465              	
 466 0012 4FF0FC03 	 mov r3,#252
 467 0016 83F31188 	 msr basepri,r3
 468 001a BFF36F8F 	 isb 
 469 001e BFF34F8F 	 dsb 
 470              	
 471              	
 472              	 .thumb
 473 0022 FB60     	 str r3,[r7,#12]
 474              	.L30:
 475              	.LBE88:
 476              	.LBE87:
 477              	 .loc 1 456 0 discriminator 1
 478 0024 FEE7     	 b .L30
 479              	.L29:
 457:../Dave/Generated/FREERTOS/stream_buffer.c **** 
 458:../Dave/Generated/FREERTOS/stream_buffer.c **** 	xSpace = pxStreamBuffer->xLength + pxStreamBuffer->xTail;
 480              	 .loc 1 458 0
 481 0026 3B69     	 ldr r3,[r7,#16]
 482 0028 9A68     	 ldr r2,[r3,#8]
 483 002a 3B69     	 ldr r3,[r7,#16]
 484 002c 1B68     	 ldr r3,[r3]
 485 002e 1344     	 add r3,r3,r2
 486 0030 7B61     	 str r3,[r7,#20]
 459:../Dave/Generated/FREERTOS/stream_buffer.c **** 	xSpace -= pxStreamBuffer->xHead;
 487              	 .loc 1 459 0
 488 0032 3B69     	 ldr r3,[r7,#16]
 489 0034 5B68     	 ldr r3,[r3,#4]
 490 0036 7A69     	 ldr r2,[r7,#20]
 491 0038 D31A     	 subs r3,r2,r3
 492 003a 7B61     	 str r3,[r7,#20]
 460:../Dave/Generated/FREERTOS/stream_buffer.c **** 	xSpace -= ( size_t ) 1;
 493              	 .loc 1 460 0
 494 003c 7B69     	 ldr r3,[r7,#20]
 495 003e 013B     	 subs r3,r3,#1
 496 0040 7B61     	 str r3,[r7,#20]
 461:../Dave/Generated/FREERTOS/stream_buffer.c **** 
 462:../Dave/Generated/FREERTOS/stream_buffer.c **** 	if( xSpace >= pxStreamBuffer->xLength )
 497              	 .loc 1 462 0
 498 0042 3B69     	 ldr r3,[r7,#16]
 499 0044 9A68     	 ldr r2,[r3,#8]
 500 0046 7B69     	 ldr r3,[r7,#20]
 501 0048 9A42     	 cmp r2,r3
 502 004a 04D8     	 bhi .L31
 463:../Dave/Generated/FREERTOS/stream_buffer.c **** 	{
 464:../Dave/Generated/FREERTOS/stream_buffer.c **** 		xSpace -= pxStreamBuffer->xLength;
 503              	 .loc 1 464 0
 504 004c 3B69     	 ldr r3,[r7,#16]
 505 004e 9B68     	 ldr r3,[r3,#8]
 506 0050 7A69     	 ldr r2,[r7,#20]
 507 0052 D31A     	 subs r3,r2,r3
 508 0054 7B61     	 str r3,[r7,#20]
 509              	.L31:
 465:../Dave/Generated/FREERTOS/stream_buffer.c **** 	}
 466:../Dave/Generated/FREERTOS/stream_buffer.c **** 	else
 467:../Dave/Generated/FREERTOS/stream_buffer.c **** 	{
 468:../Dave/Generated/FREERTOS/stream_buffer.c **** 		mtCOVERAGE_TEST_MARKER();
 469:../Dave/Generated/FREERTOS/stream_buffer.c **** 	}
 470:../Dave/Generated/FREERTOS/stream_buffer.c **** 
 471:../Dave/Generated/FREERTOS/stream_buffer.c **** 	return xSpace;
 510              	 .loc 1 471 0
 511 0056 7B69     	 ldr r3,[r7,#20]
 472:../Dave/Generated/FREERTOS/stream_buffer.c **** }
 512              	 .loc 1 472 0
 513 0058 1846     	 mov r0,r3
 514 005a 1C37     	 adds r7,r7,#28
 515              	.LCFI24:
 516              	 .cfi_def_cfa_offset 4
 517 005c BD46     	 mov sp,r7
 518              	.LCFI25:
 519              	 .cfi_def_cfa_register 13
 520              	 
 521 005e 5DF8047B 	 ldr r7,[sp],#4
 522              	.LCFI26:
 523              	 .cfi_restore 7
 524              	 .cfi_def_cfa_offset 0
 525 0062 7047     	 bx lr
 526              	 .cfi_endproc
 527              	.LFE139:
 529              	 .section .text.xStreamBufferBytesAvailable,"ax",%progbits
 530              	 .align 2
 531              	 .global xStreamBufferBytesAvailable
 532              	 .thumb
 533              	 .thumb_func
 535              	xStreamBufferBytesAvailable:
 536              	.LFB140:
 473:../Dave/Generated/FREERTOS/stream_buffer.c **** /*-----------------------------------------------------------*/
 474:../Dave/Generated/FREERTOS/stream_buffer.c **** 
 475:../Dave/Generated/FREERTOS/stream_buffer.c **** size_t xStreamBufferBytesAvailable( StreamBufferHandle_t xStreamBuffer )
 476:../Dave/Generated/FREERTOS/stream_buffer.c **** {
 537              	 .loc 1 476 0
 538              	 .cfi_startproc
 539              	 
 540              	 
 541 0000 80B5     	 push {r7,lr}
 542              	.LCFI27:
 543              	 .cfi_def_cfa_offset 8
 544              	 .cfi_offset 7,-8
 545              	 .cfi_offset 14,-4
 546 0002 86B0     	 sub sp,sp,#24
 547              	.LCFI28:
 548              	 .cfi_def_cfa_offset 32
 549 0004 00AF     	 add r7,sp,#0
 550              	.LCFI29:
 551              	 .cfi_def_cfa_register 7
 552 0006 7860     	 str r0,[r7,#4]
 477:../Dave/Generated/FREERTOS/stream_buffer.c **** const StreamBuffer_t * const pxStreamBuffer = ( StreamBuffer_t * ) xStreamBuffer; /*lint !e9087 !e9
 553              	 .loc 1 477 0
 554 0008 7B68     	 ldr r3,[r7,#4]
 555 000a 7B61     	 str r3,[r7,#20]
 478:../Dave/Generated/FREERTOS/stream_buffer.c **** size_t xReturn;
 479:../Dave/Generated/FREERTOS/stream_buffer.c **** 
 480:../Dave/Generated/FREERTOS/stream_buffer.c **** 	configASSERT( pxStreamBuffer );
 556              	 .loc 1 480 0
 557 000c 7B69     	 ldr r3,[r7,#20]
 558 000e 002B     	 cmp r3,#0
 559 0010 09D1     	 bne .L34
 560              	.LBB89:
 561              	.LBB90:
 562              	 .loc 2 195 0 discriminator 1
 563              	
 564 0012 4FF0FC03 	 mov r3,#252
 565 0016 83F31188 	 msr basepri,r3
 566 001a BFF36F8F 	 isb 
 567 001e BFF34F8F 	 dsb 
 568              	
 569              	
 570              	 .thumb
 571 0022 FB60     	 str r3,[r7,#12]
 572              	.L35:
 573              	.LBE90:
 574              	.LBE89:
 575              	 .loc 1 480 0 discriminator 1
 576 0024 FEE7     	 b .L35
 577              	.L34:
 481:../Dave/Generated/FREERTOS/stream_buffer.c **** 
 482:../Dave/Generated/FREERTOS/stream_buffer.c **** 	xReturn = prvBytesInBuffer( pxStreamBuffer );
 578              	 .loc 1 482 0
 579 0026 7869     	 ldr r0,[r7,#20]
 580 0028 FFF7FEFF 	 bl prvBytesInBuffer
 581 002c 3861     	 str r0,[r7,#16]
 483:../Dave/Generated/FREERTOS/stream_buffer.c **** 	return xReturn;
 582              	 .loc 1 483 0
 583 002e 3B69     	 ldr r3,[r7,#16]
 484:../Dave/Generated/FREERTOS/stream_buffer.c **** }
 584              	 .loc 1 484 0
 585 0030 1846     	 mov r0,r3
 586 0032 1837     	 adds r7,r7,#24
 587              	.LCFI30:
 588              	 .cfi_def_cfa_offset 8
 589 0034 BD46     	 mov sp,r7
 590              	.LCFI31:
 591              	 .cfi_def_cfa_register 13
 592              	 
 593 0036 80BD     	 pop {r7,pc}
 594              	 .cfi_endproc
 595              	.LFE140:
 597              	 .section .text.xStreamBufferSend,"ax",%progbits
 598              	 .align 2
 599              	 .global xStreamBufferSend
 600              	 .thumb
 601              	 .thumb_func
 603              	xStreamBufferSend:
 604              	.LFB141:
 485:../Dave/Generated/FREERTOS/stream_buffer.c **** /*-----------------------------------------------------------*/
 486:../Dave/Generated/FREERTOS/stream_buffer.c **** 
 487:../Dave/Generated/FREERTOS/stream_buffer.c **** size_t xStreamBufferSend( StreamBufferHandle_t xStreamBuffer,
 488:../Dave/Generated/FREERTOS/stream_buffer.c **** 						  const void *pvTxData,
 489:../Dave/Generated/FREERTOS/stream_buffer.c **** 						  size_t xDataLengthBytes,
 490:../Dave/Generated/FREERTOS/stream_buffer.c **** 						  TickType_t xTicksToWait )
 491:../Dave/Generated/FREERTOS/stream_buffer.c **** {
 605              	 .loc 1 491 0
 606              	 .cfi_startproc
 607              	 
 608              	 
 609 0000 80B5     	 push {r7,lr}
 610              	.LCFI32:
 611              	 .cfi_def_cfa_offset 8
 612              	 .cfi_offset 7,-8
 613              	 .cfi_offset 14,-4
 614 0002 90B0     	 sub sp,sp,#64
 615              	.LCFI33:
 616              	 .cfi_def_cfa_offset 72
 617 0004 02AF     	 add r7,sp,#8
 618              	.LCFI34:
 619              	 .cfi_def_cfa 7,64
 620 0006 F860     	 str r0,[r7,#12]
 621 0008 B960     	 str r1,[r7,#8]
 622 000a 7A60     	 str r2,[r7,#4]
 623 000c 3B60     	 str r3,[r7]
 492:../Dave/Generated/FREERTOS/stream_buffer.c **** StreamBuffer_t * const pxStreamBuffer = ( StreamBuffer_t * ) xStreamBuffer; /*lint !e9087 !e9079 Sa
 624              	 .loc 1 492 0
 625 000e FB68     	 ldr r3,[r7,#12]
 626 0010 FB62     	 str r3,[r7,#44]
 493:../Dave/Generated/FREERTOS/stream_buffer.c **** size_t xReturn, xSpace = 0;
 627              	 .loc 1 493 0
 628 0012 0023     	 movs r3,#0
 629 0014 7B63     	 str r3,[r7,#52]
 494:../Dave/Generated/FREERTOS/stream_buffer.c **** size_t xRequiredSpace = xDataLengthBytes;
 630              	 .loc 1 494 0
 631 0016 7B68     	 ldr r3,[r7,#4]
 632 0018 3B63     	 str r3,[r7,#48]
 495:../Dave/Generated/FREERTOS/stream_buffer.c **** TimeOut_t xTimeOut;
 496:../Dave/Generated/FREERTOS/stream_buffer.c **** 
 497:../Dave/Generated/FREERTOS/stream_buffer.c **** 	configASSERT( pvTxData );
 633              	 .loc 1 497 0
 634 001a BB68     	 ldr r3,[r7,#8]
 635 001c 002B     	 cmp r3,#0
 636 001e 09D1     	 bne .L38
 637              	.LBB91:
 638              	.LBB92:
 639              	 .loc 2 195 0 discriminator 1
 640              	
 641 0020 4FF0FC03 	 mov r3,#252
 642 0024 83F31188 	 msr basepri,r3
 643 0028 BFF36F8F 	 isb 
 644 002c BFF34F8F 	 dsb 
 645              	
 646              	
 647              	 .thumb
 648 0030 7B62     	 str r3,[r7,#36]
 649              	.L39:
 650              	.LBE92:
 651              	.LBE91:
 652              	 .loc 1 497 0 discriminator 1
 653 0032 FEE7     	 b .L39
 654              	.L38:
 498:../Dave/Generated/FREERTOS/stream_buffer.c **** 	configASSERT( pxStreamBuffer );
 655              	 .loc 1 498 0
 656 0034 FB6A     	 ldr r3,[r7,#44]
 657 0036 002B     	 cmp r3,#0
 658 0038 09D1     	 bne .L40
 659              	.LBB93:
 660              	.LBB94:
 661              	 .loc 2 195 0 discriminator 1
 662              	
 663 003a 4FF0FC03 	 mov r3,#252
 664 003e 83F31188 	 msr basepri,r3
 665 0042 BFF36F8F 	 isb 
 666 0046 BFF34F8F 	 dsb 
 667              	
 668              	
 669              	 .thumb
 670 004a 3B62     	 str r3,[r7,#32]
 671              	.L41:
 672              	.LBE94:
 673              	.LBE93:
 674              	 .loc 1 498 0 discriminator 2
 675 004c FEE7     	 b .L41
 676              	.L40:
 499:../Dave/Generated/FREERTOS/stream_buffer.c **** 
 500:../Dave/Generated/FREERTOS/stream_buffer.c **** 	/* This send function is used to write to both message buffers and stream
 501:../Dave/Generated/FREERTOS/stream_buffer.c **** 	buffers.  If this is a message buffer then the space needed must be
 502:../Dave/Generated/FREERTOS/stream_buffer.c **** 	increased by the amount of bytes needed to store the length of the
 503:../Dave/Generated/FREERTOS/stream_buffer.c **** 	message. */
 504:../Dave/Generated/FREERTOS/stream_buffer.c **** 	if( ( pxStreamBuffer->ucFlags & sbFLAGS_IS_MESSAGE_BUFFER ) != ( uint8_t ) 0 )
 677              	 .loc 1 504 0
 678 004e FB6A     	 ldr r3,[r7,#44]
 679 0050 1B7F     	 ldrb r3,[r3,#28]
 680 0052 03F00103 	 and r3,r3,#1
 681 0056 002B     	 cmp r3,#0
 682 0058 02D0     	 beq .L42
 505:../Dave/Generated/FREERTOS/stream_buffer.c **** 	{
 506:../Dave/Generated/FREERTOS/stream_buffer.c **** 		xRequiredSpace += sbBYTES_TO_STORE_MESSAGE_LENGTH;
 683              	 .loc 1 506 0
 684 005a 3B6B     	 ldr r3,[r7,#48]
 685 005c 0433     	 adds r3,r3,#4
 686 005e 3B63     	 str r3,[r7,#48]
 687              	.L42:
 507:../Dave/Generated/FREERTOS/stream_buffer.c **** 	}
 508:../Dave/Generated/FREERTOS/stream_buffer.c **** 	else
 509:../Dave/Generated/FREERTOS/stream_buffer.c **** 	{
 510:../Dave/Generated/FREERTOS/stream_buffer.c **** 		mtCOVERAGE_TEST_MARKER();
 511:../Dave/Generated/FREERTOS/stream_buffer.c **** 	}
 512:../Dave/Generated/FREERTOS/stream_buffer.c **** 
 513:../Dave/Generated/FREERTOS/stream_buffer.c **** 	if( xTicksToWait != ( TickType_t ) 0 )
 688              	 .loc 1 513 0
 689 0060 3B68     	 ldr r3,[r7]
 690 0062 002B     	 cmp r3,#0
 691 0064 3FD0     	 beq .L43
 514:../Dave/Generated/FREERTOS/stream_buffer.c **** 	{
 515:../Dave/Generated/FREERTOS/stream_buffer.c **** 		vTaskSetTimeOutState( &xTimeOut );
 692              	 .loc 1 515 0
 693 0066 07F11403 	 add r3,r7,#20
 694 006a 1846     	 mov r0,r3
 695 006c FFF7FEFF 	 bl vTaskSetTimeOutState
 696              	.L49:
 516:../Dave/Generated/FREERTOS/stream_buffer.c **** 
 517:../Dave/Generated/FREERTOS/stream_buffer.c **** 		do
 518:../Dave/Generated/FREERTOS/stream_buffer.c **** 		{
 519:../Dave/Generated/FREERTOS/stream_buffer.c **** 			/* Wait until the required number of bytes are free in the message
 520:../Dave/Generated/FREERTOS/stream_buffer.c **** 			buffer. */
 521:../Dave/Generated/FREERTOS/stream_buffer.c **** 			taskENTER_CRITICAL();
 697              	 .loc 1 521 0
 698 0070 FFF7FEFF 	 bl vPortEnterCritical
 522:../Dave/Generated/FREERTOS/stream_buffer.c **** 			{
 523:../Dave/Generated/FREERTOS/stream_buffer.c **** 				xSpace = xStreamBufferSpacesAvailable( pxStreamBuffer );
 699              	 .loc 1 523 0
 700 0074 F86A     	 ldr r0,[r7,#44]
 701 0076 FFF7FEFF 	 bl xStreamBufferSpacesAvailable
 702 007a 7863     	 str r0,[r7,#52]
 524:../Dave/Generated/FREERTOS/stream_buffer.c **** 
 525:../Dave/Generated/FREERTOS/stream_buffer.c **** 				if( xSpace < xRequiredSpace )
 703              	 .loc 1 525 0
 704 007c 7A6B     	 ldr r2,[r7,#52]
 705 007e 3B6B     	 ldr r3,[r7,#48]
 706 0080 9A42     	 cmp r2,r3
 707 0082 16D2     	 bcs .L44
 526:../Dave/Generated/FREERTOS/stream_buffer.c **** 				{
 527:../Dave/Generated/FREERTOS/stream_buffer.c **** 					/* Clear notification state as going to wait for space. */
 528:../Dave/Generated/FREERTOS/stream_buffer.c **** 					( void ) xTaskNotifyStateClear( NULL );
 708              	 .loc 1 528 0
 709 0084 0020     	 movs r0,#0
 710 0086 FFF7FEFF 	 bl xTaskNotifyStateClear
 529:../Dave/Generated/FREERTOS/stream_buffer.c **** 
 530:../Dave/Generated/FREERTOS/stream_buffer.c **** 					/* Should only be one writer. */
 531:../Dave/Generated/FREERTOS/stream_buffer.c **** 					configASSERT( pxStreamBuffer->xTaskWaitingToSend == NULL );
 711              	 .loc 1 531 0
 712 008a FB6A     	 ldr r3,[r7,#44]
 713 008c 5B69     	 ldr r3,[r3,#20]
 714 008e 002B     	 cmp r3,#0
 715 0090 09D0     	 beq .L45
 716              	.LBB95:
 717              	.LBB96:
 718              	 .loc 2 195 0 discriminator 1
 719              	
 720 0092 4FF0FC03 	 mov r3,#252
 721 0096 83F31188 	 msr basepri,r3
 722 009a BFF36F8F 	 isb 
 723 009e BFF34F8F 	 dsb 
 724              	
 725              	
 726              	 .thumb
 727 00a2 FB61     	 str r3,[r7,#28]
 728              	.L46:
 729              	.LBE96:
 730              	.LBE95:
 731              	 .loc 1 531 0 discriminator 3
 732 00a4 FEE7     	 b .L46
 733              	.L45:
 532:../Dave/Generated/FREERTOS/stream_buffer.c **** 					pxStreamBuffer->xTaskWaitingToSend = xTaskGetCurrentTaskHandle();
 734              	 .loc 1 532 0
 735 00a6 FFF7FEFF 	 bl xTaskGetCurrentTaskHandle
 736 00aa 0246     	 mov r2,r0
 737 00ac FB6A     	 ldr r3,[r7,#44]
 738 00ae 5A61     	 str r2,[r3,#20]
 739 00b0 03E0     	 b .L54
 740              	.L44:
 533:../Dave/Generated/FREERTOS/stream_buffer.c **** 				}
 534:../Dave/Generated/FREERTOS/stream_buffer.c **** 				else
 535:../Dave/Generated/FREERTOS/stream_buffer.c **** 				{
 536:../Dave/Generated/FREERTOS/stream_buffer.c **** 					taskEXIT_CRITICAL();
 741              	 .loc 1 536 0
 742 00b2 FFF7FEFF 	 bl vPortExitCritical
 537:../Dave/Generated/FREERTOS/stream_buffer.c **** 					break;
 743              	 .loc 1 537 0
 744 00b6 00BF     	 nop
 745 00b8 15E0     	 b .L43
 746              	.L54:
 538:../Dave/Generated/FREERTOS/stream_buffer.c **** 				}
 539:../Dave/Generated/FREERTOS/stream_buffer.c **** 			}
 540:../Dave/Generated/FREERTOS/stream_buffer.c **** 			taskEXIT_CRITICAL();
 747              	 .loc 1 540 0
 748 00ba FFF7FEFF 	 bl vPortExitCritical
 541:../Dave/Generated/FREERTOS/stream_buffer.c **** 
 542:../Dave/Generated/FREERTOS/stream_buffer.c **** 			traceBLOCKING_ON_STREAM_BUFFER_SEND( xStreamBuffer );
 543:../Dave/Generated/FREERTOS/stream_buffer.c **** 			( void ) xTaskNotifyWait( ( uint32_t ) 0, UINT32_MAX, NULL, xTicksToWait );
 749              	 .loc 1 543 0
 750 00be 3B68     	 ldr r3,[r7]
 751 00c0 0020     	 movs r0,#0
 752 00c2 4FF0FF31 	 mov r1,#-1
 753 00c6 0022     	 movs r2,#0
 754 00c8 FFF7FEFF 	 bl xTaskNotifyWait
 544:../Dave/Generated/FREERTOS/stream_buffer.c **** 			pxStreamBuffer->xTaskWaitingToSend = NULL;
 755              	 .loc 1 544 0
 756 00cc FB6A     	 ldr r3,[r7,#44]
 757 00ce 0022     	 movs r2,#0
 758 00d0 5A61     	 str r2,[r3,#20]
 545:../Dave/Generated/FREERTOS/stream_buffer.c **** 
 546:../Dave/Generated/FREERTOS/stream_buffer.c **** 		} while( xTaskCheckForTimeOut( &xTimeOut, &xTicksToWait ) == pdFALSE );
 759              	 .loc 1 546 0
 760 00d2 07F11402 	 add r2,r7,#20
 761 00d6 3B46     	 mov r3,r7
 762 00d8 1046     	 mov r0,r2
 763 00da 1946     	 mov r1,r3
 764 00dc FFF7FEFF 	 bl xTaskCheckForTimeOut
 765 00e0 0346     	 mov r3,r0
 766 00e2 002B     	 cmp r3,#0
 767 00e4 C4D0     	 beq .L49
 768              	.L43:
 547:../Dave/Generated/FREERTOS/stream_buffer.c **** 	}
 548:../Dave/Generated/FREERTOS/stream_buffer.c **** 	else
 549:../Dave/Generated/FREERTOS/stream_buffer.c **** 	{
 550:../Dave/Generated/FREERTOS/stream_buffer.c **** 		mtCOVERAGE_TEST_MARKER();
 551:../Dave/Generated/FREERTOS/stream_buffer.c **** 	}
 552:../Dave/Generated/FREERTOS/stream_buffer.c **** 
 553:../Dave/Generated/FREERTOS/stream_buffer.c **** 	if( xSpace == ( size_t ) 0 )
 769              	 .loc 1 553 0
 770 00e6 7B6B     	 ldr r3,[r7,#52]
 771 00e8 002B     	 cmp r3,#0
 772 00ea 03D1     	 bne .L50
 554:../Dave/Generated/FREERTOS/stream_buffer.c **** 	{
 555:../Dave/Generated/FREERTOS/stream_buffer.c **** 		xSpace = xStreamBufferSpacesAvailable( pxStreamBuffer );
 773              	 .loc 1 555 0
 774 00ec F86A     	 ldr r0,[r7,#44]
 775 00ee FFF7FEFF 	 bl xStreamBufferSpacesAvailable
 776 00f2 7863     	 str r0,[r7,#52]
 777              	.L50:
 556:../Dave/Generated/FREERTOS/stream_buffer.c **** 	}
 557:../Dave/Generated/FREERTOS/stream_buffer.c **** 	else
 558:../Dave/Generated/FREERTOS/stream_buffer.c **** 	{
 559:../Dave/Generated/FREERTOS/stream_buffer.c **** 		mtCOVERAGE_TEST_MARKER();
 560:../Dave/Generated/FREERTOS/stream_buffer.c **** 	}
 561:../Dave/Generated/FREERTOS/stream_buffer.c **** 
 562:../Dave/Generated/FREERTOS/stream_buffer.c **** 	xReturn = prvWriteMessageToBuffer( pxStreamBuffer, pvTxData, xDataLengthBytes, xSpace, xRequiredSp
 778              	 .loc 1 562 0
 779 00f4 3B6B     	 ldr r3,[r7,#48]
 780 00f6 0093     	 str r3,[sp]
 781 00f8 F86A     	 ldr r0,[r7,#44]
 782 00fa B968     	 ldr r1,[r7,#8]
 783 00fc 7A68     	 ldr r2,[r7,#4]
 784 00fe 7B6B     	 ldr r3,[r7,#52]
 785 0100 FFF7FEFF 	 bl prvWriteMessageToBuffer
 786 0104 B862     	 str r0,[r7,#40]
 563:../Dave/Generated/FREERTOS/stream_buffer.c **** 
 564:../Dave/Generated/FREERTOS/stream_buffer.c **** 	if( xReturn > ( size_t ) 0 )
 787              	 .loc 1 564 0
 788 0106 BB6A     	 ldr r3,[r7,#40]
 789 0108 002B     	 cmp r3,#0
 790 010a 1AD0     	 beq .L51
 565:../Dave/Generated/FREERTOS/stream_buffer.c **** 	{
 566:../Dave/Generated/FREERTOS/stream_buffer.c **** 		traceSTREAM_BUFFER_SEND( xStreamBuffer, xReturn );
 567:../Dave/Generated/FREERTOS/stream_buffer.c **** 
 568:../Dave/Generated/FREERTOS/stream_buffer.c **** 		/* Was a task waiting for the data? */
 569:../Dave/Generated/FREERTOS/stream_buffer.c **** 		if( prvBytesInBuffer( pxStreamBuffer ) >= pxStreamBuffer->xTriggerLevelBytes )
 791              	 .loc 1 569 0
 792 010c F86A     	 ldr r0,[r7,#44]
 793 010e FFF7FEFF 	 bl prvBytesInBuffer
 794 0112 0246     	 mov r2,r0
 795 0114 FB6A     	 ldr r3,[r7,#44]
 796 0116 DB68     	 ldr r3,[r3,#12]
 797 0118 9A42     	 cmp r2,r3
 798 011a 12D3     	 bcc .L51
 570:../Dave/Generated/FREERTOS/stream_buffer.c **** 		{
 571:../Dave/Generated/FREERTOS/stream_buffer.c **** 			sbSEND_COMPLETED( pxStreamBuffer );
 799              	 .loc 1 571 0
 800 011c FFF7FEFF 	 bl vTaskSuspendAll
 801 0120 FB6A     	 ldr r3,[r7,#44]
 802 0122 1B69     	 ldr r3,[r3,#16]
 803 0124 002B     	 cmp r3,#0
 804 0126 0AD0     	 beq .L52
 805              	 .loc 1 571 0 is_stmt 0 discriminator 1
 806 0128 FB6A     	 ldr r3,[r7,#44]
 807 012a 1B69     	 ldr r3,[r3,#16]
 808 012c 1846     	 mov r0,r3
 809 012e 0021     	 movs r1,#0
 810 0130 0022     	 movs r2,#0
 811 0132 0023     	 movs r3,#0
 812 0134 FFF7FEFF 	 bl xTaskGenericNotify
 813 0138 FB6A     	 ldr r3,[r7,#44]
 814 013a 0022     	 movs r2,#0
 815 013c 1A61     	 str r2,[r3,#16]
 816              	.L52:
 817              	 .loc 1 571 0 discriminator 3
 818 013e FFF7FEFF 	 bl xTaskResumeAll
 819              	.L51:
 572:../Dave/Generated/FREERTOS/stream_buffer.c **** 		}
 573:../Dave/Generated/FREERTOS/stream_buffer.c **** 		else
 574:../Dave/Generated/FREERTOS/stream_buffer.c **** 		{
 575:../Dave/Generated/FREERTOS/stream_buffer.c **** 			mtCOVERAGE_TEST_MARKER();
 576:../Dave/Generated/FREERTOS/stream_buffer.c **** 		}
 577:../Dave/Generated/FREERTOS/stream_buffer.c **** 	}
 578:../Dave/Generated/FREERTOS/stream_buffer.c **** 	else
 579:../Dave/Generated/FREERTOS/stream_buffer.c **** 	{
 580:../Dave/Generated/FREERTOS/stream_buffer.c **** 		mtCOVERAGE_TEST_MARKER();
 581:../Dave/Generated/FREERTOS/stream_buffer.c **** 		traceSTREAM_BUFFER_SEND_FAILED( xStreamBuffer );
 582:../Dave/Generated/FREERTOS/stream_buffer.c **** 	}
 583:../Dave/Generated/FREERTOS/stream_buffer.c **** 
 584:../Dave/Generated/FREERTOS/stream_buffer.c **** 	return xReturn;
 820              	 .loc 1 584 0 is_stmt 1
 821 0142 BB6A     	 ldr r3,[r7,#40]
 585:../Dave/Generated/FREERTOS/stream_buffer.c **** }
 822              	 .loc 1 585 0
 823 0144 1846     	 mov r0,r3
 824 0146 3837     	 adds r7,r7,#56
 825              	.LCFI35:
 826              	 .cfi_def_cfa_offset 8
 827 0148 BD46     	 mov sp,r7
 828              	.LCFI36:
 829              	 .cfi_def_cfa_register 13
 830              	 
 831 014a 80BD     	 pop {r7,pc}
 832              	 .cfi_endproc
 833              	.LFE141:
 835              	 .section .text.xStreamBufferSendFromISR,"ax",%progbits
 836              	 .align 2
 837              	 .global xStreamBufferSendFromISR
 838              	 .thumb
 839              	 .thumb_func
 841              	xStreamBufferSendFromISR:
 842              	.LFB142:
 586:../Dave/Generated/FREERTOS/stream_buffer.c **** /*-----------------------------------------------------------*/
 587:../Dave/Generated/FREERTOS/stream_buffer.c **** 
 588:../Dave/Generated/FREERTOS/stream_buffer.c **** size_t xStreamBufferSendFromISR( StreamBufferHandle_t xStreamBuffer,
 589:../Dave/Generated/FREERTOS/stream_buffer.c **** 								 const void *pvTxData,
 590:../Dave/Generated/FREERTOS/stream_buffer.c **** 								 size_t xDataLengthBytes,
 591:../Dave/Generated/FREERTOS/stream_buffer.c **** 								 BaseType_t * const pxHigherPriorityTaskWoken )
 592:../Dave/Generated/FREERTOS/stream_buffer.c **** {
 843              	 .loc 1 592 0
 844              	 .cfi_startproc
 845              	 
 846              	 
 847 0000 80B5     	 push {r7,lr}
 848              	.LCFI37:
 849              	 .cfi_def_cfa_offset 8
 850              	 .cfi_offset 7,-8
 851              	 .cfi_offset 14,-4
 852 0002 90B0     	 sub sp,sp,#64
 853              	.LCFI38:
 854              	 .cfi_def_cfa_offset 72
 855 0004 02AF     	 add r7,sp,#8
 856              	.LCFI39:
 857              	 .cfi_def_cfa 7,64
 858 0006 F860     	 str r0,[r7,#12]
 859 0008 B960     	 str r1,[r7,#8]
 860 000a 7A60     	 str r2,[r7,#4]
 861 000c 3B60     	 str r3,[r7]
 593:../Dave/Generated/FREERTOS/stream_buffer.c **** StreamBuffer_t * const pxStreamBuffer = ( StreamBuffer_t * ) xStreamBuffer; /*lint !e9087 !e9079 Sa
 862              	 .loc 1 593 0
 863 000e FB68     	 ldr r3,[r7,#12]
 864 0010 3B63     	 str r3,[r7,#48]
 594:../Dave/Generated/FREERTOS/stream_buffer.c **** size_t xReturn, xSpace;
 595:../Dave/Generated/FREERTOS/stream_buffer.c **** size_t xRequiredSpace = xDataLengthBytes;
 865              	 .loc 1 595 0
 866 0012 7B68     	 ldr r3,[r7,#4]
 867 0014 7B63     	 str r3,[r7,#52]
 596:../Dave/Generated/FREERTOS/stream_buffer.c **** 
 597:../Dave/Generated/FREERTOS/stream_buffer.c **** 	configASSERT( pvTxData );
 868              	 .loc 1 597 0
 869 0016 BB68     	 ldr r3,[r7,#8]
 870 0018 002B     	 cmp r3,#0
 871 001a 09D1     	 bne .L56
 872              	.LBB97:
 873              	.LBB98:
 874              	 .loc 2 195 0 discriminator 1
 875              	
 876 001c 4FF0FC03 	 mov r3,#252
 877 0020 83F31188 	 msr basepri,r3
 878 0024 BFF36F8F 	 isb 
 879 0028 BFF34F8F 	 dsb 
 880              	
 881              	
 882              	 .thumb
 883 002c 3B62     	 str r3,[r7,#32]
 884              	.L57:
 885              	.LBE98:
 886              	.LBE97:
 887              	 .loc 1 597 0 discriminator 1
 888 002e FEE7     	 b .L57
 889              	.L56:
 598:../Dave/Generated/FREERTOS/stream_buffer.c **** 	configASSERT( pxStreamBuffer );
 890              	 .loc 1 598 0
 891 0030 3B6B     	 ldr r3,[r7,#48]
 892 0032 002B     	 cmp r3,#0
 893 0034 09D1     	 bne .L58
 894              	.LBB99:
 895              	.LBB100:
 896              	 .loc 2 195 0 discriminator 1
 897              	
 898 0036 4FF0FC03 	 mov r3,#252
 899 003a 83F31188 	 msr basepri,r3
 900 003e BFF36F8F 	 isb 
 901 0042 BFF34F8F 	 dsb 
 902              	
 903              	
 904              	 .thumb
 905 0046 FB61     	 str r3,[r7,#28]
 906              	.L59:
 907              	.LBE100:
 908              	.LBE99:
 909              	 .loc 1 598 0 discriminator 2
 910 0048 FEE7     	 b .L59
 911              	.L58:
 599:../Dave/Generated/FREERTOS/stream_buffer.c **** 
 600:../Dave/Generated/FREERTOS/stream_buffer.c **** 	/* This send function is used to write to both message buffers and stream
 601:../Dave/Generated/FREERTOS/stream_buffer.c **** 	buffers.  If this is a message buffer then the space needed must be
 602:../Dave/Generated/FREERTOS/stream_buffer.c **** 	increased by the amount of bytes needed to store the length of the
 603:../Dave/Generated/FREERTOS/stream_buffer.c **** 	message. */
 604:../Dave/Generated/FREERTOS/stream_buffer.c **** 	if( ( pxStreamBuffer->ucFlags & sbFLAGS_IS_MESSAGE_BUFFER ) != ( uint8_t ) 0 )
 912              	 .loc 1 604 0
 913 004a 3B6B     	 ldr r3,[r7,#48]
 914 004c 1B7F     	 ldrb r3,[r3,#28]
 915 004e 03F00103 	 and r3,r3,#1
 916 0052 002B     	 cmp r3,#0
 917 0054 02D0     	 beq .L60
 605:../Dave/Generated/FREERTOS/stream_buffer.c **** 	{
 606:../Dave/Generated/FREERTOS/stream_buffer.c **** 		xRequiredSpace += sbBYTES_TO_STORE_MESSAGE_LENGTH;
 918              	 .loc 1 606 0
 919 0056 7B6B     	 ldr r3,[r7,#52]
 920 0058 0433     	 adds r3,r3,#4
 921 005a 7B63     	 str r3,[r7,#52]
 922              	.L60:
 607:../Dave/Generated/FREERTOS/stream_buffer.c **** 	}
 608:../Dave/Generated/FREERTOS/stream_buffer.c **** 	else
 609:../Dave/Generated/FREERTOS/stream_buffer.c **** 	{
 610:../Dave/Generated/FREERTOS/stream_buffer.c **** 		mtCOVERAGE_TEST_MARKER();
 611:../Dave/Generated/FREERTOS/stream_buffer.c **** 	}
 612:../Dave/Generated/FREERTOS/stream_buffer.c **** 
 613:../Dave/Generated/FREERTOS/stream_buffer.c **** 	xSpace = xStreamBufferSpacesAvailable( pxStreamBuffer );
 923              	 .loc 1 613 0
 924 005c 386B     	 ldr r0,[r7,#48]
 925 005e FFF7FEFF 	 bl xStreamBufferSpacesAvailable
 926 0062 F862     	 str r0,[r7,#44]
 614:../Dave/Generated/FREERTOS/stream_buffer.c **** 	xReturn = prvWriteMessageToBuffer( pxStreamBuffer, pvTxData, xDataLengthBytes, xSpace, xRequiredSp
 927              	 .loc 1 614 0
 928 0064 7B6B     	 ldr r3,[r7,#52]
 929 0066 0093     	 str r3,[sp]
 930 0068 386B     	 ldr r0,[r7,#48]
 931 006a B968     	 ldr r1,[r7,#8]
 932 006c 7A68     	 ldr r2,[r7,#4]
 933 006e FB6A     	 ldr r3,[r7,#44]
 934 0070 FFF7FEFF 	 bl prvWriteMessageToBuffer
 935 0074 B862     	 str r0,[r7,#40]
 615:../Dave/Generated/FREERTOS/stream_buffer.c **** 
 616:../Dave/Generated/FREERTOS/stream_buffer.c **** 	if( xReturn > ( size_t ) 0 )
 936              	 .loc 1 616 0
 937 0076 BB6A     	 ldr r3,[r7,#40]
 938 0078 002B     	 cmp r3,#0
 939 007a 2BD0     	 beq .L61
 617:../Dave/Generated/FREERTOS/stream_buffer.c **** 	{
 618:../Dave/Generated/FREERTOS/stream_buffer.c **** 		/* Was a task waiting for the data? */
 619:../Dave/Generated/FREERTOS/stream_buffer.c **** 		if( prvBytesInBuffer( pxStreamBuffer ) >= pxStreamBuffer->xTriggerLevelBytes )
 940              	 .loc 1 619 0
 941 007c 386B     	 ldr r0,[r7,#48]
 942 007e FFF7FEFF 	 bl prvBytesInBuffer
 943 0082 0246     	 mov r2,r0
 944 0084 3B6B     	 ldr r3,[r7,#48]
 945 0086 DB68     	 ldr r3,[r3,#12]
 946 0088 9A42     	 cmp r2,r3
 947 008a 23D3     	 bcc .L61
 948              	.LBB101:
 949              	.LBB102:
 950              	.LBB103:
 196:../Dave/Generated/FREERTOS/portable/GCC/portmacro.h **** 	(
 197:../Dave/Generated/FREERTOS/portable/GCC/portmacro.h **** 		"	mov %0, %1												\n"	\
 198:../Dave/Generated/FREERTOS/portable/GCC/portmacro.h **** 		"	msr basepri, %0											\n" \
 199:../Dave/Generated/FREERTOS/portable/GCC/portmacro.h **** 		"	isb														\n" \
 200:../Dave/Generated/FREERTOS/portable/GCC/portmacro.h **** 		"	dsb														\n" \
 201:../Dave/Generated/FREERTOS/portable/GCC/portmacro.h **** 		:"=r" (ulNewBASEPRI) : "i" ( configMAX_SYSCALL_INTERRUPT_PRIORITY ) : "memory"
 202:../Dave/Generated/FREERTOS/portable/GCC/portmacro.h **** 	);
 203:../Dave/Generated/FREERTOS/portable/GCC/portmacro.h **** }
 204:../Dave/Generated/FREERTOS/portable/GCC/portmacro.h **** 
 205:../Dave/Generated/FREERTOS/portable/GCC/portmacro.h **** /*-----------------------------------------------------------*/
 206:../Dave/Generated/FREERTOS/portable/GCC/portmacro.h **** 
 207:../Dave/Generated/FREERTOS/portable/GCC/portmacro.h **** portFORCE_INLINE static uint32_t ulPortRaiseBASEPRI( void )
 208:../Dave/Generated/FREERTOS/portable/GCC/portmacro.h **** {
 209:../Dave/Generated/FREERTOS/portable/GCC/portmacro.h **** uint32_t ulOriginalBASEPRI, ulNewBASEPRI;
 210:../Dave/Generated/FREERTOS/portable/GCC/portmacro.h **** 
 211:../Dave/Generated/FREERTOS/portable/GCC/portmacro.h **** 	__asm volatile
 951              	 .loc 2 211 0
 952              	
 953 008c EFF31182 	 mrs r2,basepri
 954 0090 4FF0FC03 	 mov r3,#252
 955 0094 83F31188 	 msr basepri,r3
 956 0098 BFF36F8F 	 isb 
 957 009c BFF34F8F 	 dsb 
 958              	
 959              	
 960              	 .thumb
 961 00a0 BA61     	 str r2,[r7,#24]
 962 00a2 7B61     	 str r3,[r7,#20]
 212:../Dave/Generated/FREERTOS/portable/GCC/portmacro.h **** 	(
 213:../Dave/Generated/FREERTOS/portable/GCC/portmacro.h **** 		"	mrs %0, basepri											\n" \
 214:../Dave/Generated/FREERTOS/portable/GCC/portmacro.h **** 		"	mov %1, %2												\n"	\
 215:../Dave/Generated/FREERTOS/portable/GCC/portmacro.h **** 		"	msr basepri, %1											\n" \
 216:../Dave/Generated/FREERTOS/portable/GCC/portmacro.h **** 		"	isb														\n" \
 217:../Dave/Generated/FREERTOS/portable/GCC/portmacro.h **** 		"	dsb														\n" \
 218:../Dave/Generated/FREERTOS/portable/GCC/portmacro.h **** 		:"=r" (ulOriginalBASEPRI), "=r" (ulNewBASEPRI) : "i" ( configMAX_SYSCALL_INTERRUPT_PRIORITY ) : "
 219:../Dave/Generated/FREERTOS/portable/GCC/portmacro.h **** 	);
 220:../Dave/Generated/FREERTOS/portable/GCC/portmacro.h **** 
 221:../Dave/Generated/FREERTOS/portable/GCC/portmacro.h **** 	/* This return will not be reached but is necessary to prevent compiler
 222:../Dave/Generated/FREERTOS/portable/GCC/portmacro.h **** 	warnings. */
 223:../Dave/Generated/FREERTOS/portable/GCC/portmacro.h **** 	return ulOriginalBASEPRI;
 963              	 .loc 2 223 0
 964 00a4 BB69     	 ldr r3,[r7,#24]
 965              	.LBE103:
 966              	.LBE102:
 620:../Dave/Generated/FREERTOS/stream_buffer.c **** 		{
 621:../Dave/Generated/FREERTOS/stream_buffer.c **** 			sbSEND_COMPLETE_FROM_ISR( pxStreamBuffer, pxHigherPriorityTaskWoken );
 967              	 .loc 1 621 0
 968 00a6 7B62     	 str r3,[r7,#36]
 969 00a8 3B6B     	 ldr r3,[r7,#48]
 970 00aa 1B69     	 ldr r3,[r3,#16]
 971 00ac 002B     	 cmp r3,#0
 972 00ae 0CD0     	 beq .L63
 973              	 .loc 1 621 0 is_stmt 0 discriminator 1
 974 00b0 3B6B     	 ldr r3,[r7,#48]
 975 00b2 1A69     	 ldr r2,[r3,#16]
 976 00b4 3B68     	 ldr r3,[r7]
 977 00b6 0093     	 str r3,[sp]
 978 00b8 1046     	 mov r0,r2
 979 00ba 0021     	 movs r1,#0
 980 00bc 0022     	 movs r2,#0
 981 00be 0023     	 movs r3,#0
 982 00c0 FFF7FEFF 	 bl xTaskGenericNotifyFromISR
 983 00c4 3B6B     	 ldr r3,[r7,#48]
 984 00c6 0022     	 movs r2,#0
 985 00c8 1A61     	 str r2,[r3,#16]
 986              	.L63:
 987 00ca 7B6A     	 ldr r3,[r7,#36]
 988 00cc 3B61     	 str r3,[r7,#16]
 989              	.LBB104:
 990              	.LBB105:
 224:../Dave/Generated/FREERTOS/portable/GCC/portmacro.h **** }
 225:../Dave/Generated/FREERTOS/portable/GCC/portmacro.h **** /*-----------------------------------------------------------*/
 226:../Dave/Generated/FREERTOS/portable/GCC/portmacro.h **** 
 227:../Dave/Generated/FREERTOS/portable/GCC/portmacro.h **** portFORCE_INLINE static void vPortSetBASEPRI( uint32_t ulNewMaskValue )
 228:../Dave/Generated/FREERTOS/portable/GCC/portmacro.h **** {
 229:../Dave/Generated/FREERTOS/portable/GCC/portmacro.h **** 	__asm volatile
 991              	 .loc 2 229 0 is_stmt 1 discriminator 3
 992 00ce 3B69     	 ldr r3,[r7,#16]
 993              	
 994 00d0 83F31188 	 msr basepri,r3
 995              	
 996              	 .thumb
 997              	.L61:
 998              	.LBE105:
 999              	.LBE104:
 1000              	.LBE101:
 622:../Dave/Generated/FREERTOS/stream_buffer.c **** 		}
 623:../Dave/Generated/FREERTOS/stream_buffer.c **** 		else
 624:../Dave/Generated/FREERTOS/stream_buffer.c **** 		{
 625:../Dave/Generated/FREERTOS/stream_buffer.c **** 			mtCOVERAGE_TEST_MARKER();
 626:../Dave/Generated/FREERTOS/stream_buffer.c **** 		}
 627:../Dave/Generated/FREERTOS/stream_buffer.c **** 	}
 628:../Dave/Generated/FREERTOS/stream_buffer.c **** 	else
 629:../Dave/Generated/FREERTOS/stream_buffer.c **** 	{
 630:../Dave/Generated/FREERTOS/stream_buffer.c **** 		mtCOVERAGE_TEST_MARKER();
 631:../Dave/Generated/FREERTOS/stream_buffer.c **** 	}
 632:../Dave/Generated/FREERTOS/stream_buffer.c **** 
 633:../Dave/Generated/FREERTOS/stream_buffer.c **** 	traceSTREAM_BUFFER_SEND_FROM_ISR( xStreamBuffer, xReturn );
 634:../Dave/Generated/FREERTOS/stream_buffer.c **** 
 635:../Dave/Generated/FREERTOS/stream_buffer.c **** 	return xReturn;
 1001              	 .loc 1 635 0
 1002 00d4 BB6A     	 ldr r3,[r7,#40]
 636:../Dave/Generated/FREERTOS/stream_buffer.c **** }
 1003              	 .loc 1 636 0
 1004 00d6 1846     	 mov r0,r3
 1005 00d8 3837     	 adds r7,r7,#56
 1006              	.LCFI40:
 1007              	 .cfi_def_cfa_offset 8
 1008 00da BD46     	 mov sp,r7
 1009              	.LCFI41:
 1010              	 .cfi_def_cfa_register 13
 1011              	 
 1012 00dc 80BD     	 pop {r7,pc}
 1013              	 .cfi_endproc
 1014              	.LFE142:
 1016 00de 00BF     	 .section .text.prvWriteMessageToBuffer,"ax",%progbits
 1017              	 .align 2
 1018              	 .thumb
 1019              	 .thumb_func
 1021              	prvWriteMessageToBuffer:
 1022              	.LFB143:
 637:../Dave/Generated/FREERTOS/stream_buffer.c **** /*-----------------------------------------------------------*/
 638:../Dave/Generated/FREERTOS/stream_buffer.c **** 
 639:../Dave/Generated/FREERTOS/stream_buffer.c **** static size_t prvWriteMessageToBuffer( StreamBuffer_t * const pxStreamBuffer,
 640:../Dave/Generated/FREERTOS/stream_buffer.c **** 									   const void * pvTxData,
 641:../Dave/Generated/FREERTOS/stream_buffer.c **** 									   size_t xDataLengthBytes,
 642:../Dave/Generated/FREERTOS/stream_buffer.c **** 									   size_t xSpace,
 643:../Dave/Generated/FREERTOS/stream_buffer.c **** 									   size_t xRequiredSpace )
 644:../Dave/Generated/FREERTOS/stream_buffer.c **** {
 1023              	 .loc 1 644 0
 1024              	 .cfi_startproc
 1025              	 
 1026              	 
 1027 0000 80B5     	 push {r7,lr}
 1028              	.LCFI42:
 1029              	 .cfi_def_cfa_offset 8
 1030              	 .cfi_offset 7,-8
 1031              	 .cfi_offset 14,-4
 1032 0002 86B0     	 sub sp,sp,#24
 1033              	.LCFI43:
 1034              	 .cfi_def_cfa_offset 32
 1035 0004 00AF     	 add r7,sp,#0
 1036              	.LCFI44:
 1037              	 .cfi_def_cfa_register 7
 1038 0006 F860     	 str r0,[r7,#12]
 1039 0008 B960     	 str r1,[r7,#8]
 1040 000a 7A60     	 str r2,[r7,#4]
 1041 000c 3B60     	 str r3,[r7]
 645:../Dave/Generated/FREERTOS/stream_buffer.c **** 	BaseType_t xShouldWrite;
 646:../Dave/Generated/FREERTOS/stream_buffer.c **** 	size_t xReturn;
 647:../Dave/Generated/FREERTOS/stream_buffer.c **** 
 648:../Dave/Generated/FREERTOS/stream_buffer.c **** 	if( xSpace == ( size_t ) 0 )
 1042              	 .loc 1 648 0
 1043 000e 3B68     	 ldr r3,[r7]
 1044 0010 002B     	 cmp r3,#0
 1045 0012 02D1     	 bne .L66
 649:../Dave/Generated/FREERTOS/stream_buffer.c **** 	{
 650:../Dave/Generated/FREERTOS/stream_buffer.c **** 		/* Doesn't matter if this is a stream buffer or a message buffer, there
 651:../Dave/Generated/FREERTOS/stream_buffer.c **** 		is no space to write. */
 652:../Dave/Generated/FREERTOS/stream_buffer.c **** 		xShouldWrite = pdFALSE;
 1046              	 .loc 1 652 0
 1047 0014 0023     	 movs r3,#0
 1048 0016 7B61     	 str r3,[r7,#20]
 1049 0018 1DE0     	 b .L67
 1050              	.L66:
 653:../Dave/Generated/FREERTOS/stream_buffer.c **** 	}
 654:../Dave/Generated/FREERTOS/stream_buffer.c **** 	else if( ( pxStreamBuffer->ucFlags & sbFLAGS_IS_MESSAGE_BUFFER ) == ( uint8_t ) 0 )
 1051              	 .loc 1 654 0
 1052 001a FB68     	 ldr r3,[r7,#12]
 1053 001c 1B7F     	 ldrb r3,[r3,#28]
 1054 001e 03F00103 	 and r3,r3,#1
 1055 0022 002B     	 cmp r3,#0
 1056 0024 08D1     	 bne .L68
 655:../Dave/Generated/FREERTOS/stream_buffer.c **** 	{
 656:../Dave/Generated/FREERTOS/stream_buffer.c **** 		/* This is a stream buffer, as opposed to a message buffer, so writing a
 657:../Dave/Generated/FREERTOS/stream_buffer.c **** 		stream of bytes rather than discrete messages.  Write as many bytes as
 658:../Dave/Generated/FREERTOS/stream_buffer.c **** 		possible. */
 659:../Dave/Generated/FREERTOS/stream_buffer.c **** 		xShouldWrite = pdTRUE;
 1057              	 .loc 1 659 0
 1058 0026 0123     	 movs r3,#1
 1059 0028 7B61     	 str r3,[r7,#20]
 660:../Dave/Generated/FREERTOS/stream_buffer.c **** 		xDataLengthBytes = configMIN( xDataLengthBytes, xSpace ); /*lint !e9044 Function parameter modifi
 1060              	 .loc 1 660 0
 1061 002a 7A68     	 ldr r2,[r7,#4]
 1062 002c 3B68     	 ldr r3,[r7]
 1063 002e 9342     	 cmp r3,r2
 1064 0030 28BF     	 it cs
 1065 0032 1346     	 movcs r3,r2
 1066 0034 7B60     	 str r3,[r7,#4]
 1067 0036 0EE0     	 b .L67
 1068              	.L68:
 661:../Dave/Generated/FREERTOS/stream_buffer.c **** 	}
 662:../Dave/Generated/FREERTOS/stream_buffer.c **** 	else if( xSpace >= xRequiredSpace )
 1069              	 .loc 1 662 0
 1070 0038 3A68     	 ldr r2,[r7]
 1071 003a 3B6A     	 ldr r3,[r7,#32]
 1072 003c 9A42     	 cmp r2,r3
 1073 003e 08D3     	 bcc .L69
 663:../Dave/Generated/FREERTOS/stream_buffer.c **** 	{
 664:../Dave/Generated/FREERTOS/stream_buffer.c **** 		/* This is a message buffer, as opposed to a stream buffer, and there
 665:../Dave/Generated/FREERTOS/stream_buffer.c **** 		is enough space to write both the message length and the message itself
 666:../Dave/Generated/FREERTOS/stream_buffer.c **** 		into the buffer.  Start by writing the length of the data, the data
 667:../Dave/Generated/FREERTOS/stream_buffer.c **** 		itself will be written later in this function. */
 668:../Dave/Generated/FREERTOS/stream_buffer.c **** 		xShouldWrite = pdTRUE;
 1074              	 .loc 1 668 0
 1075 0040 0123     	 movs r3,#1
 1076 0042 7B61     	 str r3,[r7,#20]
 669:../Dave/Generated/FREERTOS/stream_buffer.c **** 		( void ) prvWriteBytesToBuffer( pxStreamBuffer, ( const uint8_t * ) &( xDataLengthBytes ), sbBYTE
 1077              	 .loc 1 669 0
 1078 0044 3B1D     	 adds r3,r7,#4
 1079 0046 F868     	 ldr r0,[r7,#12]
 1080 0048 1946     	 mov r1,r3
 1081 004a 0422     	 movs r2,#4
 1082 004c FFF7FEFF 	 bl prvWriteBytesToBuffer
 1083 0050 01E0     	 b .L67
 1084              	.L69:
 670:../Dave/Generated/FREERTOS/stream_buffer.c **** 	}
 671:../Dave/Generated/FREERTOS/stream_buffer.c **** 	else
 672:../Dave/Generated/FREERTOS/stream_buffer.c **** 	{
 673:../Dave/Generated/FREERTOS/stream_buffer.c **** 		/* There is space available, but not enough space. */
 674:../Dave/Generated/FREERTOS/stream_buffer.c **** 		xShouldWrite = pdFALSE;
 1085              	 .loc 1 674 0
 1086 0052 0023     	 movs r3,#0
 1087 0054 7B61     	 str r3,[r7,#20]
 1088              	.L67:
 675:../Dave/Generated/FREERTOS/stream_buffer.c **** 	}
 676:../Dave/Generated/FREERTOS/stream_buffer.c **** 
 677:../Dave/Generated/FREERTOS/stream_buffer.c **** 	if( xShouldWrite != pdFALSE )
 1089              	 .loc 1 677 0
 1090 0056 7B69     	 ldr r3,[r7,#20]
 1091 0058 002B     	 cmp r3,#0
 1092 005a 07D0     	 beq .L70
 678:../Dave/Generated/FREERTOS/stream_buffer.c **** 	{
 679:../Dave/Generated/FREERTOS/stream_buffer.c **** 		/* Writes the data itself. */
 680:../Dave/Generated/FREERTOS/stream_buffer.c **** 		xReturn = prvWriteBytesToBuffer( pxStreamBuffer, ( const uint8_t * ) pvTxData, xDataLengthBytes )
 1093              	 .loc 1 680 0
 1094 005c 7B68     	 ldr r3,[r7,#4]
 1095 005e F868     	 ldr r0,[r7,#12]
 1096 0060 B968     	 ldr r1,[r7,#8]
 1097 0062 1A46     	 mov r2,r3
 1098 0064 FFF7FEFF 	 bl prvWriteBytesToBuffer
 1099 0068 3861     	 str r0,[r7,#16]
 1100 006a 01E0     	 b .L71
 1101              	.L70:
 681:../Dave/Generated/FREERTOS/stream_buffer.c **** 	}
 682:../Dave/Generated/FREERTOS/stream_buffer.c **** 	else
 683:../Dave/Generated/FREERTOS/stream_buffer.c **** 	{
 684:../Dave/Generated/FREERTOS/stream_buffer.c **** 		xReturn = 0;
 1102              	 .loc 1 684 0
 1103 006c 0023     	 movs r3,#0
 1104 006e 3B61     	 str r3,[r7,#16]
 1105              	.L71:
 685:../Dave/Generated/FREERTOS/stream_buffer.c **** 	}
 686:../Dave/Generated/FREERTOS/stream_buffer.c **** 
 687:../Dave/Generated/FREERTOS/stream_buffer.c **** 	return xReturn;
 1106              	 .loc 1 687 0
 1107 0070 3B69     	 ldr r3,[r7,#16]
 688:../Dave/Generated/FREERTOS/stream_buffer.c **** }
 1108              	 .loc 1 688 0
 1109 0072 1846     	 mov r0,r3
 1110 0074 1837     	 adds r7,r7,#24
 1111              	.LCFI45:
 1112              	 .cfi_def_cfa_offset 8
 1113 0076 BD46     	 mov sp,r7
 1114              	.LCFI46:
 1115              	 .cfi_def_cfa_register 13
 1116              	 
 1117 0078 80BD     	 pop {r7,pc}
 1118              	 .cfi_endproc
 1119              	.LFE143:
 1121 007a 00BF     	 .section .text.xStreamBufferReceive,"ax",%progbits
 1122              	 .align 2
 1123              	 .global xStreamBufferReceive
 1124              	 .thumb
 1125              	 .thumb_func
 1127              	xStreamBufferReceive:
 1128              	.LFB144:
 689:../Dave/Generated/FREERTOS/stream_buffer.c **** /*-----------------------------------------------------------*/
 690:../Dave/Generated/FREERTOS/stream_buffer.c **** 
 691:../Dave/Generated/FREERTOS/stream_buffer.c **** size_t xStreamBufferReceive( StreamBufferHandle_t xStreamBuffer,
 692:../Dave/Generated/FREERTOS/stream_buffer.c **** 							 void *pvRxData,
 693:../Dave/Generated/FREERTOS/stream_buffer.c **** 							 size_t xBufferLengthBytes,
 694:../Dave/Generated/FREERTOS/stream_buffer.c **** 							 TickType_t xTicksToWait )
 695:../Dave/Generated/FREERTOS/stream_buffer.c **** {
 1129              	 .loc 1 695 0
 1130              	 .cfi_startproc
 1131              	 
 1132              	 
 1133 0000 80B5     	 push {r7,lr}
 1134              	.LCFI47:
 1135              	 .cfi_def_cfa_offset 8
 1136              	 .cfi_offset 7,-8
 1137              	 .cfi_offset 14,-4
 1138 0002 8EB0     	 sub sp,sp,#56
 1139              	.LCFI48:
 1140              	 .cfi_def_cfa_offset 64
 1141 0004 02AF     	 add r7,sp,#8
 1142              	.LCFI49:
 1143              	 .cfi_def_cfa 7,56
 1144 0006 F860     	 str r0,[r7,#12]
 1145 0008 B960     	 str r1,[r7,#8]
 1146 000a 7A60     	 str r2,[r7,#4]
 1147 000c 3B60     	 str r3,[r7]
 696:../Dave/Generated/FREERTOS/stream_buffer.c **** StreamBuffer_t * const pxStreamBuffer = ( StreamBuffer_t * ) xStreamBuffer; /*lint !e9087 !e9079 Sa
 1148              	 .loc 1 696 0
 1149 000e FB68     	 ldr r3,[r7,#12]
 1150 0010 3B62     	 str r3,[r7,#32]
 697:../Dave/Generated/FREERTOS/stream_buffer.c **** size_t xReceivedLength = 0, xBytesAvailable, xBytesToStoreMessageLength;
 1151              	 .loc 1 697 0
 1152 0012 0023     	 movs r3,#0
 1153 0014 FB62     	 str r3,[r7,#44]
 698:../Dave/Generated/FREERTOS/stream_buffer.c **** 
 699:../Dave/Generated/FREERTOS/stream_buffer.c **** 	configASSERT( pvRxData );
 1154              	 .loc 1 699 0
 1155 0016 BB68     	 ldr r3,[r7,#8]
 1156 0018 002B     	 cmp r3,#0
 1157 001a 09D1     	 bne .L74
 1158              	.LBB106:
 1159              	.LBB107:
 195:../Dave/Generated/FREERTOS/portable/GCC/portmacro.h **** 	(
 1160              	 .loc 2 195 0 discriminator 1
 1161              	
 1162 001c 4FF0FC03 	 mov r3,#252
 1163 0020 83F31188 	 msr basepri,r3
 1164 0024 BFF36F8F 	 isb 
 1165 0028 BFF34F8F 	 dsb 
 1166              	
 1167              	
 1168              	 .thumb
 1169 002c FB61     	 str r3,[r7,#28]
 1170              	.L75:
 1171              	.LBE107:
 1172              	.LBE106:
 1173              	 .loc 1 699 0 discriminator 1
 1174 002e FEE7     	 b .L75
 1175              	.L74:
 700:../Dave/Generated/FREERTOS/stream_buffer.c **** 	configASSERT( pxStreamBuffer );
 1176              	 .loc 1 700 0
 1177 0030 3B6A     	 ldr r3,[r7,#32]
 1178 0032 002B     	 cmp r3,#0
 1179 0034 09D1     	 bne .L76
 1180              	.LBB108:
 1181              	.LBB109:
 195:../Dave/Generated/FREERTOS/portable/GCC/portmacro.h **** 	(
 1182              	 .loc 2 195 0 discriminator 1
 1183              	
 1184 0036 4FF0FC03 	 mov r3,#252
 1185 003a 83F31188 	 msr basepri,r3
 1186 003e BFF36F8F 	 isb 
 1187 0042 BFF34F8F 	 dsb 
 1188              	
 1189              	
 1190              	 .thumb
 1191 0046 BB61     	 str r3,[r7,#24]
 1192              	.L77:
 1193              	.LBE109:
 1194              	.LBE108:
 1195              	 .loc 1 700 0 discriminator 2
 1196 0048 FEE7     	 b .L77
 1197              	.L76:
 701:../Dave/Generated/FREERTOS/stream_buffer.c **** 
 702:../Dave/Generated/FREERTOS/stream_buffer.c **** 	/* This receive function is used by both message buffers, which store
 703:../Dave/Generated/FREERTOS/stream_buffer.c **** 	discrete messages, and stream buffers, which store a continuous stream of
 704:../Dave/Generated/FREERTOS/stream_buffer.c **** 	bytes.  Discrete messages include an additional
 705:../Dave/Generated/FREERTOS/stream_buffer.c **** 	sbBYTES_TO_STORE_MESSAGE_LENGTH bytes that hold the length of the
 706:../Dave/Generated/FREERTOS/stream_buffer.c **** 	message. */
 707:../Dave/Generated/FREERTOS/stream_buffer.c **** 	if( ( pxStreamBuffer->ucFlags & sbFLAGS_IS_MESSAGE_BUFFER ) != ( uint8_t ) 0 )
 1198              	 .loc 1 707 0
 1199 004a 3B6A     	 ldr r3,[r7,#32]
 1200 004c 1B7F     	 ldrb r3,[r3,#28]
 1201 004e 03F00103 	 and r3,r3,#1
 1202 0052 002B     	 cmp r3,#0
 1203 0054 02D0     	 beq .L78
 708:../Dave/Generated/FREERTOS/stream_buffer.c **** 	{
 709:../Dave/Generated/FREERTOS/stream_buffer.c **** 		xBytesToStoreMessageLength = sbBYTES_TO_STORE_MESSAGE_LENGTH;
 1204              	 .loc 1 709 0
 1205 0056 0423     	 movs r3,#4
 1206 0058 7B62     	 str r3,[r7,#36]
 1207 005a 01E0     	 b .L79
 1208              	.L78:
 710:../Dave/Generated/FREERTOS/stream_buffer.c **** 	}
 711:../Dave/Generated/FREERTOS/stream_buffer.c **** 	else
 712:../Dave/Generated/FREERTOS/stream_buffer.c **** 	{
 713:../Dave/Generated/FREERTOS/stream_buffer.c **** 		xBytesToStoreMessageLength = 0;
 1209              	 .loc 1 713 0
 1210 005c 0023     	 movs r3,#0
 1211 005e 7B62     	 str r3,[r7,#36]
 1212              	.L79:
 714:../Dave/Generated/FREERTOS/stream_buffer.c **** 	}
 715:../Dave/Generated/FREERTOS/stream_buffer.c **** 
 716:../Dave/Generated/FREERTOS/stream_buffer.c **** 	if( xTicksToWait != ( TickType_t ) 0 )
 1213              	 .loc 1 716 0
 1214 0060 3B68     	 ldr r3,[r7]
 1215 0062 002B     	 cmp r3,#0
 1216 0064 34D0     	 beq .L80
 717:../Dave/Generated/FREERTOS/stream_buffer.c **** 	{
 718:../Dave/Generated/FREERTOS/stream_buffer.c **** 		/* Checking if there is data and clearing the notification state must be
 719:../Dave/Generated/FREERTOS/stream_buffer.c **** 		performed atomically. */
 720:../Dave/Generated/FREERTOS/stream_buffer.c **** 		taskENTER_CRITICAL();
 1217              	 .loc 1 720 0
 1218 0066 FFF7FEFF 	 bl vPortEnterCritical
 721:../Dave/Generated/FREERTOS/stream_buffer.c **** 		{
 722:../Dave/Generated/FREERTOS/stream_buffer.c **** 			xBytesAvailable = prvBytesInBuffer( pxStreamBuffer );
 1219              	 .loc 1 722 0
 1220 006a 386A     	 ldr r0,[r7,#32]
 1221 006c FFF7FEFF 	 bl prvBytesInBuffer
 1222 0070 B862     	 str r0,[r7,#40]
 723:../Dave/Generated/FREERTOS/stream_buffer.c **** 
 724:../Dave/Generated/FREERTOS/stream_buffer.c **** 			/* If this function was invoked by a message buffer read then
 725:../Dave/Generated/FREERTOS/stream_buffer.c **** 			xBytesToStoreMessageLength holds the number of bytes used to hold
 726:../Dave/Generated/FREERTOS/stream_buffer.c **** 			the length of the next discrete message.  If this function was
 727:../Dave/Generated/FREERTOS/stream_buffer.c **** 			invoked by a stream buffer read then xBytesToStoreMessageLength will
 728:../Dave/Generated/FREERTOS/stream_buffer.c **** 			be 0. */
 729:../Dave/Generated/FREERTOS/stream_buffer.c **** 			if( xBytesAvailable <= xBytesToStoreMessageLength )
 1223              	 .loc 1 729 0
 1224 0072 BA6A     	 ldr r2,[r7,#40]
 1225 0074 7B6A     	 ldr r3,[r7,#36]
 1226 0076 9A42     	 cmp r2,r3
 1227 0078 15D8     	 bhi .L81
 730:../Dave/Generated/FREERTOS/stream_buffer.c **** 			{
 731:../Dave/Generated/FREERTOS/stream_buffer.c **** 				/* Clear notification state as going to wait for data. */
 732:../Dave/Generated/FREERTOS/stream_buffer.c **** 				( void ) xTaskNotifyStateClear( NULL );
 1228              	 .loc 1 732 0
 1229 007a 0020     	 movs r0,#0
 1230 007c FFF7FEFF 	 bl xTaskNotifyStateClear
 733:../Dave/Generated/FREERTOS/stream_buffer.c **** 
 734:../Dave/Generated/FREERTOS/stream_buffer.c **** 				/* Should only be one reader. */
 735:../Dave/Generated/FREERTOS/stream_buffer.c **** 				configASSERT( pxStreamBuffer->xTaskWaitingToReceive == NULL );
 1231              	 .loc 1 735 0
 1232 0080 3B6A     	 ldr r3,[r7,#32]
 1233 0082 1B69     	 ldr r3,[r3,#16]
 1234 0084 002B     	 cmp r3,#0
 1235 0086 09D0     	 beq .L82
 1236              	.LBB110:
 1237              	.LBB111:
 195:../Dave/Generated/FREERTOS/portable/GCC/portmacro.h **** 	(
 1238              	 .loc 2 195 0 discriminator 1
 1239              	
 1240 0088 4FF0FC03 	 mov r3,#252
 1241 008c 83F31188 	 msr basepri,r3
 1242 0090 BFF36F8F 	 isb 
 1243 0094 BFF34F8F 	 dsb 
 1244              	
 1245              	
 1246              	 .thumb
 1247 0098 7B61     	 str r3,[r7,#20]
 1248              	.L83:
 1249              	.LBE111:
 1250              	.LBE110:
 1251              	 .loc 1 735 0 discriminator 3
 1252 009a FEE7     	 b .L83
 1253              	.L82:
 736:../Dave/Generated/FREERTOS/stream_buffer.c **** 				pxStreamBuffer->xTaskWaitingToReceive = xTaskGetCurrentTaskHandle();
 1254              	 .loc 1 736 0
 1255 009c FFF7FEFF 	 bl xTaskGetCurrentTaskHandle
 1256 00a0 0246     	 mov r2,r0
 1257 00a2 3B6A     	 ldr r3,[r7,#32]
 1258 00a4 1A61     	 str r2,[r3,#16]
 1259              	.L81:
 737:../Dave/Generated/FREERTOS/stream_buffer.c **** 			}
 738:../Dave/Generated/FREERTOS/stream_buffer.c **** 			else
 739:../Dave/Generated/FREERTOS/stream_buffer.c **** 			{
 740:../Dave/Generated/FREERTOS/stream_buffer.c **** 				mtCOVERAGE_TEST_MARKER();
 741:../Dave/Generated/FREERTOS/stream_buffer.c **** 			}
 742:../Dave/Generated/FREERTOS/stream_buffer.c **** 		}
 743:../Dave/Generated/FREERTOS/stream_buffer.c **** 		taskEXIT_CRITICAL();
 1260              	 .loc 1 743 0
 1261 00a6 FFF7FEFF 	 bl vPortExitCritical
 744:../Dave/Generated/FREERTOS/stream_buffer.c **** 
 745:../Dave/Generated/FREERTOS/stream_buffer.c **** 		if( xBytesAvailable <= xBytesToStoreMessageLength )
 1262              	 .loc 1 745 0
 1263 00aa BA6A     	 ldr r2,[r7,#40]
 1264 00ac 7B6A     	 ldr r3,[r7,#36]
 1265 00ae 9A42     	 cmp r2,r3
 1266 00b0 12D8     	 bhi .L84
 746:../Dave/Generated/FREERTOS/stream_buffer.c **** 		{
 747:../Dave/Generated/FREERTOS/stream_buffer.c **** 			/* Wait for data to be available. */
 748:../Dave/Generated/FREERTOS/stream_buffer.c **** 			traceBLOCKING_ON_STREAM_BUFFER_RECEIVE( xStreamBuffer );
 749:../Dave/Generated/FREERTOS/stream_buffer.c **** 			( void ) xTaskNotifyWait( ( uint32_t ) 0, UINT32_MAX, NULL, xTicksToWait );
 1267              	 .loc 1 749 0
 1268 00b2 0020     	 movs r0,#0
 1269 00b4 4FF0FF31 	 mov r1,#-1
 1270 00b8 0022     	 movs r2,#0
 1271 00ba 3B68     	 ldr r3,[r7]
 1272 00bc FFF7FEFF 	 bl xTaskNotifyWait
 750:../Dave/Generated/FREERTOS/stream_buffer.c **** 			pxStreamBuffer->xTaskWaitingToReceive = NULL;
 1273              	 .loc 1 750 0
 1274 00c0 3B6A     	 ldr r3,[r7,#32]
 1275 00c2 0022     	 movs r2,#0
 1276 00c4 1A61     	 str r2,[r3,#16]
 751:../Dave/Generated/FREERTOS/stream_buffer.c **** 
 752:../Dave/Generated/FREERTOS/stream_buffer.c **** 			/* Recheck the data available after blocking. */
 753:../Dave/Generated/FREERTOS/stream_buffer.c **** 			xBytesAvailable = prvBytesInBuffer( pxStreamBuffer );
 1277              	 .loc 1 753 0
 1278 00c6 386A     	 ldr r0,[r7,#32]
 1279 00c8 FFF7FEFF 	 bl prvBytesInBuffer
 1280 00cc B862     	 str r0,[r7,#40]
 1281 00ce 03E0     	 b .L84
 1282              	.L80:
 754:../Dave/Generated/FREERTOS/stream_buffer.c **** 		}
 755:../Dave/Generated/FREERTOS/stream_buffer.c **** 		else
 756:../Dave/Generated/FREERTOS/stream_buffer.c **** 		{
 757:../Dave/Generated/FREERTOS/stream_buffer.c **** 			mtCOVERAGE_TEST_MARKER();
 758:../Dave/Generated/FREERTOS/stream_buffer.c **** 		}
 759:../Dave/Generated/FREERTOS/stream_buffer.c **** 	}
 760:../Dave/Generated/FREERTOS/stream_buffer.c **** 	else
 761:../Dave/Generated/FREERTOS/stream_buffer.c **** 	{
 762:../Dave/Generated/FREERTOS/stream_buffer.c **** 		xBytesAvailable = prvBytesInBuffer( pxStreamBuffer );
 1283              	 .loc 1 762 0
 1284 00d0 386A     	 ldr r0,[r7,#32]
 1285 00d2 FFF7FEFF 	 bl prvBytesInBuffer
 1286 00d6 B862     	 str r0,[r7,#40]
 1287              	.L84:
 763:../Dave/Generated/FREERTOS/stream_buffer.c **** 	}
 764:../Dave/Generated/FREERTOS/stream_buffer.c **** 
 765:../Dave/Generated/FREERTOS/stream_buffer.c **** 	/* Whether receiving a discrete message (where xBytesToStoreMessageLength
 766:../Dave/Generated/FREERTOS/stream_buffer.c **** 	holds the number of bytes used to store the message length) or a stream of
 767:../Dave/Generated/FREERTOS/stream_buffer.c **** 	bytes (where xBytesToStoreMessageLength is zero), the number of bytes
 768:../Dave/Generated/FREERTOS/stream_buffer.c **** 	available must be greater than xBytesToStoreMessageLength to be able to
 769:../Dave/Generated/FREERTOS/stream_buffer.c **** 	read bytes from the buffer. */
 770:../Dave/Generated/FREERTOS/stream_buffer.c **** 	if( xBytesAvailable > xBytesToStoreMessageLength )
 1288              	 .loc 1 770 0
 1289 00d8 BA6A     	 ldr r2,[r7,#40]
 1290 00da 7B6A     	 ldr r3,[r7,#36]
 1291 00dc 9A42     	 cmp r2,r3
 1292 00de 1ED9     	 bls .L85
 771:../Dave/Generated/FREERTOS/stream_buffer.c **** 	{
 772:../Dave/Generated/FREERTOS/stream_buffer.c **** 		xReceivedLength = prvReadMessageFromBuffer( pxStreamBuffer, pvRxData, xBufferLengthBytes, xBytesA
 1293              	 .loc 1 772 0
 1294 00e0 7B6A     	 ldr r3,[r7,#36]
 1295 00e2 0093     	 str r3,[sp]
 1296 00e4 386A     	 ldr r0,[r7,#32]
 1297 00e6 B968     	 ldr r1,[r7,#8]
 1298 00e8 7A68     	 ldr r2,[r7,#4]
 1299 00ea BB6A     	 ldr r3,[r7,#40]
 1300 00ec FFF7FEFF 	 bl prvReadMessageFromBuffer
 1301 00f0 F862     	 str r0,[r7,#44]
 773:../Dave/Generated/FREERTOS/stream_buffer.c **** 
 774:../Dave/Generated/FREERTOS/stream_buffer.c **** 		/* Was a task waiting for space in the buffer? */
 775:../Dave/Generated/FREERTOS/stream_buffer.c **** 		if( xReceivedLength != ( size_t ) 0 )
 1302              	 .loc 1 775 0
 1303 00f2 FB6A     	 ldr r3,[r7,#44]
 1304 00f4 002B     	 cmp r3,#0
 1305 00f6 12D0     	 beq .L85
 776:../Dave/Generated/FREERTOS/stream_buffer.c **** 		{
 777:../Dave/Generated/FREERTOS/stream_buffer.c **** 			traceSTREAM_BUFFER_RECEIVE( xStreamBuffer, xReceivedLength );
 778:../Dave/Generated/FREERTOS/stream_buffer.c **** 			sbRECEIVE_COMPLETED( pxStreamBuffer );
 1306              	 .loc 1 778 0
 1307 00f8 FFF7FEFF 	 bl vTaskSuspendAll
 1308 00fc 3B6A     	 ldr r3,[r7,#32]
 1309 00fe 5B69     	 ldr r3,[r3,#20]
 1310 0100 002B     	 cmp r3,#0
 1311 0102 0AD0     	 beq .L86
 1312              	 .loc 1 778 0 is_stmt 0 discriminator 1
 1313 0104 3B6A     	 ldr r3,[r7,#32]
 1314 0106 5B69     	 ldr r3,[r3,#20]
 1315 0108 1846     	 mov r0,r3
 1316 010a 0021     	 movs r1,#0
 1317 010c 0022     	 movs r2,#0
 1318 010e 0023     	 movs r3,#0
 1319 0110 FFF7FEFF 	 bl xTaskGenericNotify
 1320 0114 3B6A     	 ldr r3,[r7,#32]
 1321 0116 0022     	 movs r2,#0
 1322 0118 5A61     	 str r2,[r3,#20]
 1323              	.L86:
 1324              	 .loc 1 778 0 discriminator 3
 1325 011a FFF7FEFF 	 bl xTaskResumeAll
 1326              	.L85:
 779:../Dave/Generated/FREERTOS/stream_buffer.c **** 		}
 780:../Dave/Generated/FREERTOS/stream_buffer.c **** 		else
 781:../Dave/Generated/FREERTOS/stream_buffer.c **** 		{
 782:../Dave/Generated/FREERTOS/stream_buffer.c **** 			mtCOVERAGE_TEST_MARKER();
 783:../Dave/Generated/FREERTOS/stream_buffer.c **** 		}
 784:../Dave/Generated/FREERTOS/stream_buffer.c **** 	}
 785:../Dave/Generated/FREERTOS/stream_buffer.c **** 	else
 786:../Dave/Generated/FREERTOS/stream_buffer.c **** 	{
 787:../Dave/Generated/FREERTOS/stream_buffer.c **** 		traceSTREAM_BUFFER_RECEIVE_FAILED( xStreamBuffer );
 788:../Dave/Generated/FREERTOS/stream_buffer.c **** 		mtCOVERAGE_TEST_MARKER();
 789:../Dave/Generated/FREERTOS/stream_buffer.c **** 	}
 790:../Dave/Generated/FREERTOS/stream_buffer.c **** 
 791:../Dave/Generated/FREERTOS/stream_buffer.c **** 	return xReceivedLength;
 1327              	 .loc 1 791 0 is_stmt 1
 1328 011e FB6A     	 ldr r3,[r7,#44]
 792:../Dave/Generated/FREERTOS/stream_buffer.c **** }
 1329              	 .loc 1 792 0
 1330 0120 1846     	 mov r0,r3
 1331 0122 3037     	 adds r7,r7,#48
 1332              	.LCFI50:
 1333              	 .cfi_def_cfa_offset 8
 1334 0124 BD46     	 mov sp,r7
 1335              	.LCFI51:
 1336              	 .cfi_def_cfa_register 13
 1337              	 
 1338 0126 80BD     	 pop {r7,pc}
 1339              	 .cfi_endproc
 1340              	.LFE144:
 1342              	 .section .text.xStreamBufferReceiveFromISR,"ax",%progbits
 1343              	 .align 2
 1344              	 .global xStreamBufferReceiveFromISR
 1345              	 .thumb
 1346              	 .thumb_func
 1348              	xStreamBufferReceiveFromISR:
 1349              	.LFB145:
 793:../Dave/Generated/FREERTOS/stream_buffer.c **** /*-----------------------------------------------------------*/
 794:../Dave/Generated/FREERTOS/stream_buffer.c **** 
 795:../Dave/Generated/FREERTOS/stream_buffer.c **** size_t xStreamBufferReceiveFromISR( StreamBufferHandle_t xStreamBuffer,
 796:../Dave/Generated/FREERTOS/stream_buffer.c **** 									void *pvRxData,
 797:../Dave/Generated/FREERTOS/stream_buffer.c **** 									size_t xBufferLengthBytes,
 798:../Dave/Generated/FREERTOS/stream_buffer.c **** 									BaseType_t * const pxHigherPriorityTaskWoken )
 799:../Dave/Generated/FREERTOS/stream_buffer.c **** {
 1350              	 .loc 1 799 0
 1351              	 .cfi_startproc
 1352              	 
 1353              	 
 1354 0000 80B5     	 push {r7,lr}
 1355              	.LCFI52:
 1356              	 .cfi_def_cfa_offset 8
 1357              	 .cfi_offset 7,-8
 1358              	 .cfi_offset 14,-4
 1359 0002 90B0     	 sub sp,sp,#64
 1360              	.LCFI53:
 1361              	 .cfi_def_cfa_offset 72
 1362 0004 02AF     	 add r7,sp,#8
 1363              	.LCFI54:
 1364              	 .cfi_def_cfa 7,64
 1365 0006 F860     	 str r0,[r7,#12]
 1366 0008 B960     	 str r1,[r7,#8]
 1367 000a 7A60     	 str r2,[r7,#4]
 1368 000c 3B60     	 str r3,[r7]
 800:../Dave/Generated/FREERTOS/stream_buffer.c **** StreamBuffer_t * const pxStreamBuffer = ( StreamBuffer_t * ) xStreamBuffer; /*lint !e9087 !e9079 Sa
 1369              	 .loc 1 800 0
 1370 000e FB68     	 ldr r3,[r7,#12]
 1371 0010 FB62     	 str r3,[r7,#44]
 801:../Dave/Generated/FREERTOS/stream_buffer.c **** size_t xReceivedLength = 0, xBytesAvailable, xBytesToStoreMessageLength;
 1372              	 .loc 1 801 0
 1373 0012 0023     	 movs r3,#0
 1374 0014 7B63     	 str r3,[r7,#52]
 802:../Dave/Generated/FREERTOS/stream_buffer.c **** 
 803:../Dave/Generated/FREERTOS/stream_buffer.c **** 	configASSERT( pvRxData );
 1375              	 .loc 1 803 0
 1376 0016 BB68     	 ldr r3,[r7,#8]
 1377 0018 002B     	 cmp r3,#0
 1378 001a 09D1     	 bne .L89
 1379              	.LBB112:
 1380              	.LBB113:
 195:../Dave/Generated/FREERTOS/portable/GCC/portmacro.h **** 	(
 1381              	 .loc 2 195 0 discriminator 1
 1382              	
 1383 001c 4FF0FC03 	 mov r3,#252
 1384 0020 83F31188 	 msr basepri,r3
 1385 0024 BFF36F8F 	 isb 
 1386 0028 BFF34F8F 	 dsb 
 1387              	
 1388              	
 1389              	 .thumb
 1390 002c 3B62     	 str r3,[r7,#32]
 1391              	.L90:
 1392              	.LBE113:
 1393              	.LBE112:
 1394              	 .loc 1 803 0 discriminator 1
 1395 002e FEE7     	 b .L90
 1396              	.L89:
 804:../Dave/Generated/FREERTOS/stream_buffer.c **** 	configASSERT( pxStreamBuffer );
 1397              	 .loc 1 804 0
 1398 0030 FB6A     	 ldr r3,[r7,#44]
 1399 0032 002B     	 cmp r3,#0
 1400 0034 09D1     	 bne .L91
 1401              	.LBB114:
 1402              	.LBB115:
 195:../Dave/Generated/FREERTOS/portable/GCC/portmacro.h **** 	(
 1403              	 .loc 2 195 0 discriminator 1
 1404              	
 1405 0036 4FF0FC03 	 mov r3,#252
 1406 003a 83F31188 	 msr basepri,r3
 1407 003e BFF36F8F 	 isb 
 1408 0042 BFF34F8F 	 dsb 
 1409              	
 1410              	
 1411              	 .thumb
 1412 0046 FB61     	 str r3,[r7,#28]
 1413              	.L92:
 1414              	.LBE115:
 1415              	.LBE114:
 1416              	 .loc 1 804 0 discriminator 2
 1417 0048 FEE7     	 b .L92
 1418              	.L91:
 805:../Dave/Generated/FREERTOS/stream_buffer.c **** 
 806:../Dave/Generated/FREERTOS/stream_buffer.c **** 	/* This receive function is used by both message buffers, which store
 807:../Dave/Generated/FREERTOS/stream_buffer.c **** 	discrete messages, and stream buffers, which store a continuous stream of
 808:../Dave/Generated/FREERTOS/stream_buffer.c **** 	bytes.  Discrete messages include an additional
 809:../Dave/Generated/FREERTOS/stream_buffer.c **** 	sbBYTES_TO_STORE_MESSAGE_LENGTH bytes that hold the length of the
 810:../Dave/Generated/FREERTOS/stream_buffer.c **** 	message. */
 811:../Dave/Generated/FREERTOS/stream_buffer.c **** 	if( ( pxStreamBuffer->ucFlags & sbFLAGS_IS_MESSAGE_BUFFER ) != ( uint8_t ) 0 )
 1419              	 .loc 1 811 0
 1420 004a FB6A     	 ldr r3,[r7,#44]
 1421 004c 1B7F     	 ldrb r3,[r3,#28]
 1422 004e 03F00103 	 and r3,r3,#1
 1423 0052 002B     	 cmp r3,#0
 1424 0054 02D0     	 beq .L93
 812:../Dave/Generated/FREERTOS/stream_buffer.c **** 	{
 813:../Dave/Generated/FREERTOS/stream_buffer.c **** 		xBytesToStoreMessageLength = sbBYTES_TO_STORE_MESSAGE_LENGTH;
 1425              	 .loc 1 813 0
 1426 0056 0423     	 movs r3,#4
 1427 0058 3B63     	 str r3,[r7,#48]
 1428 005a 01E0     	 b .L94
 1429              	.L93:
 814:../Dave/Generated/FREERTOS/stream_buffer.c **** 	}
 815:../Dave/Generated/FREERTOS/stream_buffer.c **** 	else
 816:../Dave/Generated/FREERTOS/stream_buffer.c **** 	{
 817:../Dave/Generated/FREERTOS/stream_buffer.c **** 		xBytesToStoreMessageLength = 0;
 1430              	 .loc 1 817 0
 1431 005c 0023     	 movs r3,#0
 1432 005e 3B63     	 str r3,[r7,#48]
 1433              	.L94:
 818:../Dave/Generated/FREERTOS/stream_buffer.c **** 	}
 819:../Dave/Generated/FREERTOS/stream_buffer.c **** 
 820:../Dave/Generated/FREERTOS/stream_buffer.c **** 	xBytesAvailable = prvBytesInBuffer( pxStreamBuffer );
 1434              	 .loc 1 820 0
 1435 0060 F86A     	 ldr r0,[r7,#44]
 1436 0062 FFF7FEFF 	 bl prvBytesInBuffer
 1437 0066 B862     	 str r0,[r7,#40]
 821:../Dave/Generated/FREERTOS/stream_buffer.c **** 
 822:../Dave/Generated/FREERTOS/stream_buffer.c **** 	/* Whether receiving a discrete message (where xBytesToStoreMessageLength
 823:../Dave/Generated/FREERTOS/stream_buffer.c **** 	holds the number of bytes used to store the message length) or a stream of
 824:../Dave/Generated/FREERTOS/stream_buffer.c **** 	bytes (where xBytesToStoreMessageLength is zero), the number of bytes
 825:../Dave/Generated/FREERTOS/stream_buffer.c **** 	available must be greater than xBytesToStoreMessageLength to be able to
 826:../Dave/Generated/FREERTOS/stream_buffer.c **** 	read bytes from the buffer. */
 827:../Dave/Generated/FREERTOS/stream_buffer.c **** 	if( xBytesAvailable > xBytesToStoreMessageLength )
 1438              	 .loc 1 827 0
 1439 0068 BA6A     	 ldr r2,[r7,#40]
 1440 006a 3B6B     	 ldr r3,[r7,#48]
 1441 006c 9A42     	 cmp r2,r3
 1442 006e 2FD9     	 bls .L95
 828:../Dave/Generated/FREERTOS/stream_buffer.c **** 	{
 829:../Dave/Generated/FREERTOS/stream_buffer.c **** 		xReceivedLength = prvReadMessageFromBuffer( pxStreamBuffer, pvRxData, xBufferLengthBytes, xBytesA
 1443              	 .loc 1 829 0
 1444 0070 3B6B     	 ldr r3,[r7,#48]
 1445 0072 0093     	 str r3,[sp]
 1446 0074 F86A     	 ldr r0,[r7,#44]
 1447 0076 B968     	 ldr r1,[r7,#8]
 1448 0078 7A68     	 ldr r2,[r7,#4]
 1449 007a BB6A     	 ldr r3,[r7,#40]
 1450 007c FFF7FEFF 	 bl prvReadMessageFromBuffer
 1451 0080 7863     	 str r0,[r7,#52]
 830:../Dave/Generated/FREERTOS/stream_buffer.c **** 
 831:../Dave/Generated/FREERTOS/stream_buffer.c **** 		/* Was a task waiting for space in the buffer? */
 832:../Dave/Generated/FREERTOS/stream_buffer.c **** 		if( xReceivedLength != ( size_t ) 0 )
 1452              	 .loc 1 832 0
 1453 0082 7B6B     	 ldr r3,[r7,#52]
 1454 0084 002B     	 cmp r3,#0
 1455 0086 23D0     	 beq .L95
 1456              	.LBB116:
 1457              	.LBB117:
 1458              	.LBB118:
 211:../Dave/Generated/FREERTOS/portable/GCC/portmacro.h **** 	(
 1459              	 .loc 2 211 0
 1460              	
 1461 0088 EFF31182 	 mrs r2,basepri
 1462 008c 4FF0FC03 	 mov r3,#252
 1463 0090 83F31188 	 msr basepri,r3
 1464 0094 BFF36F8F 	 isb 
 1465 0098 BFF34F8F 	 dsb 
 1466              	
 1467              	
 1468              	 .thumb
 1469 009c BA61     	 str r2,[r7,#24]
 1470 009e 7B61     	 str r3,[r7,#20]
 223:../Dave/Generated/FREERTOS/portable/GCC/portmacro.h **** }
 1471              	 .loc 2 223 0
 1472 00a0 BB69     	 ldr r3,[r7,#24]
 1473              	.LBE118:
 1474              	.LBE117:
 833:../Dave/Generated/FREERTOS/stream_buffer.c **** 		{
 834:../Dave/Generated/FREERTOS/stream_buffer.c **** 			sbRECEIVE_COMPLETED_FROM_ISR( pxStreamBuffer, pxHigherPriorityTaskWoken );
 1475              	 .loc 1 834 0
 1476 00a2 7B62     	 str r3,[r7,#36]
 1477 00a4 FB6A     	 ldr r3,[r7,#44]
 1478 00a6 5B69     	 ldr r3,[r3,#20]
 1479 00a8 002B     	 cmp r3,#0
 1480 00aa 0CD0     	 beq .L97
 1481              	 .loc 1 834 0 is_stmt 0 discriminator 1
 1482 00ac FB6A     	 ldr r3,[r7,#44]
 1483 00ae 5A69     	 ldr r2,[r3,#20]
 1484 00b0 3B68     	 ldr r3,[r7]
 1485 00b2 0093     	 str r3,[sp]
 1486 00b4 1046     	 mov r0,r2
 1487 00b6 0021     	 movs r1,#0
 1488 00b8 0022     	 movs r2,#0
 1489 00ba 0023     	 movs r3,#0
 1490 00bc FFF7FEFF 	 bl xTaskGenericNotifyFromISR
 1491 00c0 FB6A     	 ldr r3,[r7,#44]
 1492 00c2 0022     	 movs r2,#0
 1493 00c4 5A61     	 str r2,[r3,#20]
 1494              	.L97:
 1495 00c6 7B6A     	 ldr r3,[r7,#36]
 1496 00c8 3B61     	 str r3,[r7,#16]
 1497              	.LBB119:
 1498              	.LBB120:
 1499              	 .loc 2 229 0 is_stmt 1 discriminator 3
 1500 00ca 3B69     	 ldr r3,[r7,#16]
 1501              	
 1502 00cc 83F31188 	 msr basepri,r3
 1503              	
 1504              	 .thumb
 1505              	.L95:
 1506              	.LBE120:
 1507              	.LBE119:
 1508              	.LBE116:
 835:../Dave/Generated/FREERTOS/stream_buffer.c **** 		}
 836:../Dave/Generated/FREERTOS/stream_buffer.c **** 		else
 837:../Dave/Generated/FREERTOS/stream_buffer.c **** 		{
 838:../Dave/Generated/FREERTOS/stream_buffer.c **** 			mtCOVERAGE_TEST_MARKER();
 839:../Dave/Generated/FREERTOS/stream_buffer.c **** 		}
 840:../Dave/Generated/FREERTOS/stream_buffer.c **** 	}
 841:../Dave/Generated/FREERTOS/stream_buffer.c **** 	else
 842:../Dave/Generated/FREERTOS/stream_buffer.c **** 	{
 843:../Dave/Generated/FREERTOS/stream_buffer.c **** 		mtCOVERAGE_TEST_MARKER();
 844:../Dave/Generated/FREERTOS/stream_buffer.c **** 	}
 845:../Dave/Generated/FREERTOS/stream_buffer.c **** 
 846:../Dave/Generated/FREERTOS/stream_buffer.c **** 	traceSTREAM_BUFFER_RECEIVE_FROM_ISR( xStreamBuffer, xReceivedLength );
 847:../Dave/Generated/FREERTOS/stream_buffer.c **** 
 848:../Dave/Generated/FREERTOS/stream_buffer.c **** 	return xReceivedLength;
 1509              	 .loc 1 848 0
 1510 00d0 7B6B     	 ldr r3,[r7,#52]
 849:../Dave/Generated/FREERTOS/stream_buffer.c **** }
 1511              	 .loc 1 849 0
 1512 00d2 1846     	 mov r0,r3
 1513 00d4 3837     	 adds r7,r7,#56
 1514              	.LCFI55:
 1515              	 .cfi_def_cfa_offset 8
 1516 00d6 BD46     	 mov sp,r7
 1517              	.LCFI56:
 1518              	 .cfi_def_cfa_register 13
 1519              	 
 1520 00d8 80BD     	 pop {r7,pc}
 1521              	 .cfi_endproc
 1522              	.LFE145:
 1524 00da 00BF     	 .section .text.prvReadMessageFromBuffer,"ax",%progbits
 1525              	 .align 2
 1526              	 .thumb
 1527              	 .thumb_func
 1529              	prvReadMessageFromBuffer:
 1530              	.LFB146:
 850:../Dave/Generated/FREERTOS/stream_buffer.c **** /*-----------------------------------------------------------*/
 851:../Dave/Generated/FREERTOS/stream_buffer.c **** 
 852:../Dave/Generated/FREERTOS/stream_buffer.c **** static size_t prvReadMessageFromBuffer( StreamBuffer_t *pxStreamBuffer,
 853:../Dave/Generated/FREERTOS/stream_buffer.c **** 										void *pvRxData,
 854:../Dave/Generated/FREERTOS/stream_buffer.c **** 										size_t xBufferLengthBytes,
 855:../Dave/Generated/FREERTOS/stream_buffer.c **** 										size_t xBytesAvailable,
 856:../Dave/Generated/FREERTOS/stream_buffer.c **** 										size_t xBytesToStoreMessageLength )
 857:../Dave/Generated/FREERTOS/stream_buffer.c **** {
 1531              	 .loc 1 857 0
 1532              	 .cfi_startproc
 1533              	 
 1534              	 
 1535 0000 80B5     	 push {r7,lr}
 1536              	.LCFI57:
 1537              	 .cfi_def_cfa_offset 8
 1538              	 .cfi_offset 7,-8
 1539              	 .cfi_offset 14,-4
 1540 0002 88B0     	 sub sp,sp,#32
 1541              	.LCFI58:
 1542              	 .cfi_def_cfa_offset 40
 1543 0004 00AF     	 add r7,sp,#0
 1544              	.LCFI59:
 1545              	 .cfi_def_cfa_register 7
 1546 0006 F860     	 str r0,[r7,#12]
 1547 0008 B960     	 str r1,[r7,#8]
 1548 000a 7A60     	 str r2,[r7,#4]
 1549 000c 3B60     	 str r3,[r7]
 858:../Dave/Generated/FREERTOS/stream_buffer.c **** size_t xOriginalTail, xReceivedLength, xNextMessageLength;
 859:../Dave/Generated/FREERTOS/stream_buffer.c **** 
 860:../Dave/Generated/FREERTOS/stream_buffer.c **** 	if( xBytesToStoreMessageLength != ( size_t ) 0 )
 1550              	 .loc 1 860 0
 1551 000e BB6A     	 ldr r3,[r7,#40]
 1552 0010 002B     	 cmp r3,#0
 1553 0012 18D0     	 beq .L100
 861:../Dave/Generated/FREERTOS/stream_buffer.c **** 	{
 862:../Dave/Generated/FREERTOS/stream_buffer.c **** 		/* A discrete message is being received.  First receive the length
 863:../Dave/Generated/FREERTOS/stream_buffer.c **** 		of the message.  A copy of the tail is stored so the buffer can be
 864:../Dave/Generated/FREERTOS/stream_buffer.c **** 		returned to its prior state if the length of the message is too
 865:../Dave/Generated/FREERTOS/stream_buffer.c **** 		large for the provided buffer. */
 866:../Dave/Generated/FREERTOS/stream_buffer.c **** 		xOriginalTail = pxStreamBuffer->xTail;
 1554              	 .loc 1 866 0
 1555 0014 FB68     	 ldr r3,[r7,#12]
 1556 0016 1B68     	 ldr r3,[r3]
 1557 0018 FB61     	 str r3,[r7,#28]
 867:../Dave/Generated/FREERTOS/stream_buffer.c **** 		( void ) prvReadBytesFromBuffer( pxStreamBuffer, ( uint8_t * ) &xNextMessageLength, xBytesToStore
 1558              	 .loc 1 867 0
 1559 001a 07F11403 	 add r3,r7,#20
 1560 001e F868     	 ldr r0,[r7,#12]
 1561 0020 1946     	 mov r1,r3
 1562 0022 BA6A     	 ldr r2,[r7,#40]
 1563 0024 3B68     	 ldr r3,[r7]
 1564 0026 FFF7FEFF 	 bl prvReadBytesFromBuffer
 868:../Dave/Generated/FREERTOS/stream_buffer.c **** 
 869:../Dave/Generated/FREERTOS/stream_buffer.c **** 		/* Reduce the number of bytes available by the number of bytes just
 870:../Dave/Generated/FREERTOS/stream_buffer.c **** 		read out. */
 871:../Dave/Generated/FREERTOS/stream_buffer.c **** 		xBytesAvailable -= xBytesToStoreMessageLength;
 1565              	 .loc 1 871 0
 1566 002a 3A68     	 ldr r2,[r7]
 1567 002c BB6A     	 ldr r3,[r7,#40]
 1568 002e D31A     	 subs r3,r2,r3
 1569 0030 3B60     	 str r3,[r7]
 872:../Dave/Generated/FREERTOS/stream_buffer.c **** 
 873:../Dave/Generated/FREERTOS/stream_buffer.c **** 		/* Check there is enough space in the buffer provided by the
 874:../Dave/Generated/FREERTOS/stream_buffer.c **** 		user. */
 875:../Dave/Generated/FREERTOS/stream_buffer.c **** 		if( xNextMessageLength > xBufferLengthBytes )
 1570              	 .loc 1 875 0
 1571 0032 7A69     	 ldr r2,[r7,#20]
 1572 0034 7B68     	 ldr r3,[r7,#4]
 1573 0036 9A42     	 cmp r2,r3
 1574 0038 07D9     	 bls .L101
 876:../Dave/Generated/FREERTOS/stream_buffer.c **** 		{
 877:../Dave/Generated/FREERTOS/stream_buffer.c **** 			/* The user has provided insufficient space to read the message
 878:../Dave/Generated/FREERTOS/stream_buffer.c **** 			so return the buffer to its previous state (so the length of
 879:../Dave/Generated/FREERTOS/stream_buffer.c **** 			the message is in the buffer again). */
 880:../Dave/Generated/FREERTOS/stream_buffer.c **** 			pxStreamBuffer->xTail = xOriginalTail;
 1575              	 .loc 1 880 0
 1576 003a FB68     	 ldr r3,[r7,#12]
 1577 003c FA69     	 ldr r2,[r7,#28]
 1578 003e 1A60     	 str r2,[r3]
 881:../Dave/Generated/FREERTOS/stream_buffer.c **** 			xNextMessageLength = 0;
 1579              	 .loc 1 881 0
 1580 0040 0023     	 movs r3,#0
 1581 0042 7B61     	 str r3,[r7,#20]
 1582 0044 01E0     	 b .L101
 1583              	.L100:
 882:../Dave/Generated/FREERTOS/stream_buffer.c **** 		}
 883:../Dave/Generated/FREERTOS/stream_buffer.c **** 		else
 884:../Dave/Generated/FREERTOS/stream_buffer.c **** 		{
 885:../Dave/Generated/FREERTOS/stream_buffer.c **** 			mtCOVERAGE_TEST_MARKER();
 886:../Dave/Generated/FREERTOS/stream_buffer.c **** 		}
 887:../Dave/Generated/FREERTOS/stream_buffer.c **** 	}
 888:../Dave/Generated/FREERTOS/stream_buffer.c **** 	else
 889:../Dave/Generated/FREERTOS/stream_buffer.c **** 	{
 890:../Dave/Generated/FREERTOS/stream_buffer.c **** 		/* A stream of bytes is being received (as opposed to a discrete
 891:../Dave/Generated/FREERTOS/stream_buffer.c **** 		message), so read as many bytes as possible. */
 892:../Dave/Generated/FREERTOS/stream_buffer.c **** 		xNextMessageLength = xBufferLengthBytes;
 1584              	 .loc 1 892 0
 1585 0046 7B68     	 ldr r3,[r7,#4]
 1586 0048 7B61     	 str r3,[r7,#20]
 1587              	.L101:
 893:../Dave/Generated/FREERTOS/stream_buffer.c **** 	}
 894:../Dave/Generated/FREERTOS/stream_buffer.c **** 
 895:../Dave/Generated/FREERTOS/stream_buffer.c **** 	/* Read the actual data. */
 896:../Dave/Generated/FREERTOS/stream_buffer.c **** 	xReceivedLength = prvReadBytesFromBuffer( pxStreamBuffer, ( uint8_t * ) pvRxData, xNextMessageLeng
 1588              	 .loc 1 896 0
 1589 004a 7B69     	 ldr r3,[r7,#20]
 1590 004c F868     	 ldr r0,[r7,#12]
 1591 004e B968     	 ldr r1,[r7,#8]
 1592 0050 1A46     	 mov r2,r3
 1593 0052 3B68     	 ldr r3,[r7]
 1594 0054 FFF7FEFF 	 bl prvReadBytesFromBuffer
 1595 0058 B861     	 str r0,[r7,#24]
 897:../Dave/Generated/FREERTOS/stream_buffer.c **** 
 898:../Dave/Generated/FREERTOS/stream_buffer.c **** 	return xReceivedLength;
 1596              	 .loc 1 898 0
 1597 005a BB69     	 ldr r3,[r7,#24]
 899:../Dave/Generated/FREERTOS/stream_buffer.c **** }
 1598              	 .loc 1 899 0
 1599 005c 1846     	 mov r0,r3
 1600 005e 2037     	 adds r7,r7,#32
 1601              	.LCFI60:
 1602              	 .cfi_def_cfa_offset 8
 1603 0060 BD46     	 mov sp,r7
 1604              	.LCFI61:
 1605              	 .cfi_def_cfa_register 13
 1606              	 
 1607 0062 80BD     	 pop {r7,pc}
 1608              	 .cfi_endproc
 1609              	.LFE146:
 1611              	 .section .text.xStreamBufferIsEmpty,"ax",%progbits
 1612              	 .align 2
 1613              	 .global xStreamBufferIsEmpty
 1614              	 .thumb
 1615              	 .thumb_func
 1617              	xStreamBufferIsEmpty:
 1618              	.LFB147:
 900:../Dave/Generated/FREERTOS/stream_buffer.c **** /*-----------------------------------------------------------*/
 901:../Dave/Generated/FREERTOS/stream_buffer.c **** 
 902:../Dave/Generated/FREERTOS/stream_buffer.c **** BaseType_t xStreamBufferIsEmpty( StreamBufferHandle_t xStreamBuffer )
 903:../Dave/Generated/FREERTOS/stream_buffer.c **** {
 1619              	 .loc 1 903 0
 1620              	 .cfi_startproc
 1621              	 
 1622              	 
 1623              	 
 1624 0000 80B4     	 push {r7}
 1625              	.LCFI62:
 1626              	 .cfi_def_cfa_offset 4
 1627              	 .cfi_offset 7,-4
 1628 0002 87B0     	 sub sp,sp,#28
 1629              	.LCFI63:
 1630              	 .cfi_def_cfa_offset 32
 1631 0004 00AF     	 add r7,sp,#0
 1632              	.LCFI64:
 1633              	 .cfi_def_cfa_register 7
 1634 0006 7860     	 str r0,[r7,#4]
 904:../Dave/Generated/FREERTOS/stream_buffer.c **** const StreamBuffer_t * const pxStreamBuffer = ( StreamBuffer_t * ) xStreamBuffer; /*lint !e9087 !e9
 1635              	 .loc 1 904 0
 1636 0008 7B68     	 ldr r3,[r7,#4]
 1637 000a 3B61     	 str r3,[r7,#16]
 905:../Dave/Generated/FREERTOS/stream_buffer.c **** BaseType_t xReturn;
 906:../Dave/Generated/FREERTOS/stream_buffer.c **** size_t xTail;
 907:../Dave/Generated/FREERTOS/stream_buffer.c **** 
 908:../Dave/Generated/FREERTOS/stream_buffer.c **** 	configASSERT( pxStreamBuffer );
 1638              	 .loc 1 908 0
 1639 000c 3B69     	 ldr r3,[r7,#16]
 1640 000e 002B     	 cmp r3,#0
 1641 0010 09D1     	 bne .L104
 1642              	.LBB121:
 1643              	.LBB122:
 195:../Dave/Generated/FREERTOS/portable/GCC/portmacro.h **** 	(
 1644              	 .loc 2 195 0 discriminator 1
 1645              	
 1646 0012 4FF0FC03 	 mov r3,#252
 1647 0016 83F31188 	 msr basepri,r3
 1648 001a BFF36F8F 	 isb 
 1649 001e BFF34F8F 	 dsb 
 1650              	
 1651              	
 1652              	 .thumb
 1653 0022 BB60     	 str r3,[r7,#8]
 1654              	.L105:
 1655              	.LBE122:
 1656              	.LBE121:
 1657              	 .loc 1 908 0 discriminator 1
 1658 0024 FEE7     	 b .L105
 1659              	.L104:
 909:../Dave/Generated/FREERTOS/stream_buffer.c **** 
 910:../Dave/Generated/FREERTOS/stream_buffer.c **** 	/* True if no bytes are available. */
 911:../Dave/Generated/FREERTOS/stream_buffer.c **** 	xTail = pxStreamBuffer->xTail;
 1660              	 .loc 1 911 0
 1661 0026 3B69     	 ldr r3,[r7,#16]
 1662 0028 1B68     	 ldr r3,[r3]
 1663 002a FB60     	 str r3,[r7,#12]
 912:../Dave/Generated/FREERTOS/stream_buffer.c **** 	if( pxStreamBuffer->xHead == xTail )
 1664              	 .loc 1 912 0
 1665 002c 3B69     	 ldr r3,[r7,#16]
 1666 002e 5A68     	 ldr r2,[r3,#4]
 1667 0030 FB68     	 ldr r3,[r7,#12]
 1668 0032 9A42     	 cmp r2,r3
 1669 0034 02D1     	 bne .L106
 913:../Dave/Generated/FREERTOS/stream_buffer.c **** 	{
 914:../Dave/Generated/FREERTOS/stream_buffer.c **** 		xReturn = pdTRUE;
 1670              	 .loc 1 914 0
 1671 0036 0123     	 movs r3,#1
 1672 0038 7B61     	 str r3,[r7,#20]
 1673 003a 01E0     	 b .L107
 1674              	.L106:
 915:../Dave/Generated/FREERTOS/stream_buffer.c **** 	}
 916:../Dave/Generated/FREERTOS/stream_buffer.c **** 	else
 917:../Dave/Generated/FREERTOS/stream_buffer.c **** 	{
 918:../Dave/Generated/FREERTOS/stream_buffer.c **** 		xReturn = pdFALSE;
 1675              	 .loc 1 918 0
 1676 003c 0023     	 movs r3,#0
 1677 003e 7B61     	 str r3,[r7,#20]
 1678              	.L107:
 919:../Dave/Generated/FREERTOS/stream_buffer.c **** 	}
 920:../Dave/Generated/FREERTOS/stream_buffer.c **** 
 921:../Dave/Generated/FREERTOS/stream_buffer.c **** 	return xReturn;
 1679              	 .loc 1 921 0
 1680 0040 7B69     	 ldr r3,[r7,#20]
 922:../Dave/Generated/FREERTOS/stream_buffer.c **** }
 1681              	 .loc 1 922 0
 1682 0042 1846     	 mov r0,r3
 1683 0044 1C37     	 adds r7,r7,#28
 1684              	.LCFI65:
 1685              	 .cfi_def_cfa_offset 4
 1686 0046 BD46     	 mov sp,r7
 1687              	.LCFI66:
 1688              	 .cfi_def_cfa_register 13
 1689              	 
 1690 0048 5DF8047B 	 ldr r7,[sp],#4
 1691              	.LCFI67:
 1692              	 .cfi_restore 7
 1693              	 .cfi_def_cfa_offset 0
 1694 004c 7047     	 bx lr
 1695              	 .cfi_endproc
 1696              	.LFE147:
 1698 004e 00BF     	 .section .text.xStreamBufferIsFull,"ax",%progbits
 1699              	 .align 2
 1700              	 .global xStreamBufferIsFull
 1701              	 .thumb
 1702              	 .thumb_func
 1704              	xStreamBufferIsFull:
 1705              	.LFB148:
 923:../Dave/Generated/FREERTOS/stream_buffer.c **** /*-----------------------------------------------------------*/
 924:../Dave/Generated/FREERTOS/stream_buffer.c **** 
 925:../Dave/Generated/FREERTOS/stream_buffer.c **** BaseType_t xStreamBufferIsFull( StreamBufferHandle_t xStreamBuffer )
 926:../Dave/Generated/FREERTOS/stream_buffer.c **** {
 1706              	 .loc 1 926 0
 1707              	 .cfi_startproc
 1708              	 
 1709              	 
 1710 0000 80B5     	 push {r7,lr}
 1711              	.LCFI68:
 1712              	 .cfi_def_cfa_offset 8
 1713              	 .cfi_offset 7,-8
 1714              	 .cfi_offset 14,-4
 1715 0002 86B0     	 sub sp,sp,#24
 1716              	.LCFI69:
 1717              	 .cfi_def_cfa_offset 32
 1718 0004 00AF     	 add r7,sp,#0
 1719              	.LCFI70:
 1720              	 .cfi_def_cfa_register 7
 1721 0006 7860     	 str r0,[r7,#4]
 927:../Dave/Generated/FREERTOS/stream_buffer.c **** BaseType_t xReturn;
 928:../Dave/Generated/FREERTOS/stream_buffer.c **** size_t xBytesToStoreMessageLength;
 929:../Dave/Generated/FREERTOS/stream_buffer.c **** const StreamBuffer_t * const pxStreamBuffer = ( StreamBuffer_t * ) xStreamBuffer; /*lint !e9087 !e9
 1722              	 .loc 1 929 0
 1723 0008 7B68     	 ldr r3,[r7,#4]
 1724 000a FB60     	 str r3,[r7,#12]
 930:../Dave/Generated/FREERTOS/stream_buffer.c **** 
 931:../Dave/Generated/FREERTOS/stream_buffer.c **** 	configASSERT( pxStreamBuffer );
 1725              	 .loc 1 931 0
 1726 000c FB68     	 ldr r3,[r7,#12]
 1727 000e 002B     	 cmp r3,#0
 1728 0010 09D1     	 bne .L110
 1729              	.LBB123:
 1730              	.LBB124:
 195:../Dave/Generated/FREERTOS/portable/GCC/portmacro.h **** 	(
 1731              	 .loc 2 195 0 discriminator 1
 1732              	
 1733 0012 4FF0FC03 	 mov r3,#252
 1734 0016 83F31188 	 msr basepri,r3
 1735 001a BFF36F8F 	 isb 
 1736 001e BFF34F8F 	 dsb 
 1737              	
 1738              	
 1739              	 .thumb
 1740 0022 BB60     	 str r3,[r7,#8]
 1741              	.L111:
 1742              	.LBE124:
 1743              	.LBE123:
 1744              	 .loc 1 931 0 discriminator 1
 1745 0024 FEE7     	 b .L111
 1746              	.L110:
 932:../Dave/Generated/FREERTOS/stream_buffer.c **** 
 933:../Dave/Generated/FREERTOS/stream_buffer.c **** 	/* This generic version of the receive function is used by both message
 934:../Dave/Generated/FREERTOS/stream_buffer.c **** 	buffers, which store discrete messages, and stream buffers, which store a
 935:../Dave/Generated/FREERTOS/stream_buffer.c **** 	continuous stream of bytes.  Discrete messages include an additional
 936:../Dave/Generated/FREERTOS/stream_buffer.c **** 	sbBYTES_TO_STORE_MESSAGE_LENGTH bytes that hold the length of the message. */
 937:../Dave/Generated/FREERTOS/stream_buffer.c **** 	if( ( pxStreamBuffer->ucFlags & sbFLAGS_IS_MESSAGE_BUFFER ) != ( uint8_t ) 0 )
 1747              	 .loc 1 937 0
 1748 0026 FB68     	 ldr r3,[r7,#12]
 1749 0028 1B7F     	 ldrb r3,[r3,#28]
 1750 002a 03F00103 	 and r3,r3,#1
 1751 002e 002B     	 cmp r3,#0
 1752 0030 02D0     	 beq .L112
 938:../Dave/Generated/FREERTOS/stream_buffer.c **** 	{
 939:../Dave/Generated/FREERTOS/stream_buffer.c **** 		xBytesToStoreMessageLength = sbBYTES_TO_STORE_MESSAGE_LENGTH;
 1753              	 .loc 1 939 0
 1754 0032 0423     	 movs r3,#4
 1755 0034 3B61     	 str r3,[r7,#16]
 1756 0036 01E0     	 b .L113
 1757              	.L112:
 940:../Dave/Generated/FREERTOS/stream_buffer.c **** 	}
 941:../Dave/Generated/FREERTOS/stream_buffer.c **** 	else
 942:../Dave/Generated/FREERTOS/stream_buffer.c **** 	{
 943:../Dave/Generated/FREERTOS/stream_buffer.c **** 		xBytesToStoreMessageLength = 0;
 1758              	 .loc 1 943 0
 1759 0038 0023     	 movs r3,#0
 1760 003a 3B61     	 str r3,[r7,#16]
 1761              	.L113:
 944:../Dave/Generated/FREERTOS/stream_buffer.c **** 	}
 945:../Dave/Generated/FREERTOS/stream_buffer.c **** 
 946:../Dave/Generated/FREERTOS/stream_buffer.c **** 	/* True if the available space equals zero. */
 947:../Dave/Generated/FREERTOS/stream_buffer.c **** 	if( xStreamBufferSpacesAvailable( xStreamBuffer ) <= xBytesToStoreMessageLength )
 1762              	 .loc 1 947 0
 1763 003c 7868     	 ldr r0,[r7,#4]
 1764 003e FFF7FEFF 	 bl xStreamBufferSpacesAvailable
 1765 0042 0246     	 mov r2,r0
 1766 0044 3B69     	 ldr r3,[r7,#16]
 1767 0046 9A42     	 cmp r2,r3
 1768 0048 02D8     	 bhi .L114
 948:../Dave/Generated/FREERTOS/stream_buffer.c **** 	{
 949:../Dave/Generated/FREERTOS/stream_buffer.c **** 		xReturn = pdTRUE;
 1769              	 .loc 1 949 0
 1770 004a 0123     	 movs r3,#1
 1771 004c 7B61     	 str r3,[r7,#20]
 1772 004e 01E0     	 b .L115
 1773              	.L114:
 950:../Dave/Generated/FREERTOS/stream_buffer.c **** 	}
 951:../Dave/Generated/FREERTOS/stream_buffer.c **** 	else
 952:../Dave/Generated/FREERTOS/stream_buffer.c **** 	{
 953:../Dave/Generated/FREERTOS/stream_buffer.c **** 		xReturn = pdFALSE;
 1774              	 .loc 1 953 0
 1775 0050 0023     	 movs r3,#0
 1776 0052 7B61     	 str r3,[r7,#20]
 1777              	.L115:
 954:../Dave/Generated/FREERTOS/stream_buffer.c **** 	}
 955:../Dave/Generated/FREERTOS/stream_buffer.c **** 
 956:../Dave/Generated/FREERTOS/stream_buffer.c **** 	return xReturn;
 1778              	 .loc 1 956 0
 1779 0054 7B69     	 ldr r3,[r7,#20]
 957:../Dave/Generated/FREERTOS/stream_buffer.c **** }
 1780              	 .loc 1 957 0
 1781 0056 1846     	 mov r0,r3
 1782 0058 1837     	 adds r7,r7,#24
 1783              	.LCFI71:
 1784              	 .cfi_def_cfa_offset 8
 1785 005a BD46     	 mov sp,r7
 1786              	.LCFI72:
 1787              	 .cfi_def_cfa_register 13
 1788              	 
 1789 005c 80BD     	 pop {r7,pc}
 1790              	 .cfi_endproc
 1791              	.LFE148:
 1793 005e 00BF     	 .section .text.xStreamBufferSendCompletedFromISR,"ax",%progbits
 1794              	 .align 2
 1795              	 .global xStreamBufferSendCompletedFromISR
 1796              	 .thumb
 1797              	 .thumb_func
 1799              	xStreamBufferSendCompletedFromISR:
 1800              	.LFB149:
 958:../Dave/Generated/FREERTOS/stream_buffer.c **** /*-----------------------------------------------------------*/
 959:../Dave/Generated/FREERTOS/stream_buffer.c **** 
 960:../Dave/Generated/FREERTOS/stream_buffer.c **** BaseType_t xStreamBufferSendCompletedFromISR( StreamBufferHandle_t xStreamBuffer, BaseType_t *pxHig
 961:../Dave/Generated/FREERTOS/stream_buffer.c **** {
 1801              	 .loc 1 961 0
 1802              	 .cfi_startproc
 1803              	 
 1804              	 
 1805 0000 80B5     	 push {r7,lr}
 1806              	.LCFI73:
 1807              	 .cfi_def_cfa_offset 8
 1808              	 .cfi_offset 7,-8
 1809              	 .cfi_offset 14,-4
 1810 0002 8CB0     	 sub sp,sp,#48
 1811              	.LCFI74:
 1812              	 .cfi_def_cfa_offset 56
 1813 0004 02AF     	 add r7,sp,#8
 1814              	.LCFI75:
 1815              	 .cfi_def_cfa 7,48
 1816 0006 7860     	 str r0,[r7,#4]
 1817 0008 3960     	 str r1,[r7]
 962:../Dave/Generated/FREERTOS/stream_buffer.c **** StreamBuffer_t * const pxStreamBuffer = ( StreamBuffer_t * ) xStreamBuffer; /*lint !e9087 !e9079 Sa
 1818              	 .loc 1 962 0
 1819 000a 7B68     	 ldr r3,[r7,#4]
 1820 000c 3B62     	 str r3,[r7,#32]
 963:../Dave/Generated/FREERTOS/stream_buffer.c **** BaseType_t xReturn;
 964:../Dave/Generated/FREERTOS/stream_buffer.c **** UBaseType_t uxSavedInterruptStatus;
 965:../Dave/Generated/FREERTOS/stream_buffer.c **** 
 966:../Dave/Generated/FREERTOS/stream_buffer.c **** 	configASSERT( pxStreamBuffer );
 1821              	 .loc 1 966 0
 1822 000e 3B6A     	 ldr r3,[r7,#32]
 1823 0010 002B     	 cmp r3,#0
 1824 0012 09D1     	 bne .L118
 1825              	.LBB125:
 1826              	.LBB126:
 195:../Dave/Generated/FREERTOS/portable/GCC/portmacro.h **** 	(
 1827              	 .loc 2 195 0 discriminator 1
 1828              	
 1829 0014 4FF0FC03 	 mov r3,#252
 1830 0018 83F31188 	 msr basepri,r3
 1831 001c BFF36F8F 	 isb 
 1832 0020 BFF34F8F 	 dsb 
 1833              	
 1834              	
 1835              	 .thumb
 1836 0024 BB61     	 str r3,[r7,#24]
 1837              	.L119:
 1838              	.LBE126:
 1839              	.LBE125:
 1840              	 .loc 1 966 0 discriminator 1
 1841 0026 FEE7     	 b .L119
 1842              	.L118:
 1843              	.LBB127:
 1844              	.LBB128:
 211:../Dave/Generated/FREERTOS/portable/GCC/portmacro.h **** 	(
 1845              	 .loc 2 211 0
 1846              	
 1847 0028 EFF31182 	 mrs r2,basepri
 1848 002c 4FF0FC03 	 mov r3,#252
 1849 0030 83F31188 	 msr basepri,r3
 1850 0034 BFF36F8F 	 isb 
 1851 0038 BFF34F8F 	 dsb 
 1852              	
 1853              	
 1854              	 .thumb
 1855 003c 7A61     	 str r2,[r7,#20]
 1856 003e 3B61     	 str r3,[r7,#16]
 223:../Dave/Generated/FREERTOS/portable/GCC/portmacro.h **** }
 1857              	 .loc 2 223 0
 1858 0040 7B69     	 ldr r3,[r7,#20]
 1859              	.LBE128:
 1860              	.LBE127:
 967:../Dave/Generated/FREERTOS/stream_buffer.c **** 
 968:../Dave/Generated/FREERTOS/stream_buffer.c **** 	uxSavedInterruptStatus = ( UBaseType_t ) portSET_INTERRUPT_MASK_FROM_ISR();
 1861              	 .loc 1 968 0
 1862 0042 FB61     	 str r3,[r7,#28]
 969:../Dave/Generated/FREERTOS/stream_buffer.c **** 	{
 970:../Dave/Generated/FREERTOS/stream_buffer.c **** 		if( ( pxStreamBuffer )->xTaskWaitingToReceive != NULL )
 1863              	 .loc 1 970 0
 1864 0044 3B6A     	 ldr r3,[r7,#32]
 1865 0046 1B69     	 ldr r3,[r3,#16]
 1866 0048 002B     	 cmp r3,#0
 1867 004a 0FD0     	 beq .L121
 971:../Dave/Generated/FREERTOS/stream_buffer.c **** 		{
 972:../Dave/Generated/FREERTOS/stream_buffer.c **** 			( void ) xTaskNotifyFromISR( ( pxStreamBuffer )->xTaskWaitingToReceive,
 1868              	 .loc 1 972 0
 1869 004c 3B6A     	 ldr r3,[r7,#32]
 1870 004e 1A69     	 ldr r2,[r3,#16]
 1871 0050 3B68     	 ldr r3,[r7]
 1872 0052 0093     	 str r3,[sp]
 1873 0054 1046     	 mov r0,r2
 1874 0056 0021     	 movs r1,#0
 1875 0058 0022     	 movs r2,#0
 1876 005a 0023     	 movs r3,#0
 1877 005c FFF7FEFF 	 bl xTaskGenericNotifyFromISR
 973:../Dave/Generated/FREERTOS/stream_buffer.c **** 										 ( uint32_t ) 0,
 974:../Dave/Generated/FREERTOS/stream_buffer.c **** 										 eNoAction,
 975:../Dave/Generated/FREERTOS/stream_buffer.c **** 										 pxHigherPriorityTaskWoken );
 976:../Dave/Generated/FREERTOS/stream_buffer.c **** 			( pxStreamBuffer )->xTaskWaitingToReceive = NULL;
 1878              	 .loc 1 976 0
 1879 0060 3B6A     	 ldr r3,[r7,#32]
 1880 0062 0022     	 movs r2,#0
 1881 0064 1A61     	 str r2,[r3,#16]
 977:../Dave/Generated/FREERTOS/stream_buffer.c **** 			xReturn = pdTRUE;
 1882              	 .loc 1 977 0
 1883 0066 0123     	 movs r3,#1
 1884 0068 7B62     	 str r3,[r7,#36]
 1885 006a 01E0     	 b .L122
 1886              	.L121:
 978:../Dave/Generated/FREERTOS/stream_buffer.c **** 		}
 979:../Dave/Generated/FREERTOS/stream_buffer.c **** 		else
 980:../Dave/Generated/FREERTOS/stream_buffer.c **** 		{
 981:../Dave/Generated/FREERTOS/stream_buffer.c **** 			xReturn = pdFALSE;
 1887              	 .loc 1 981 0
 1888 006c 0023     	 movs r3,#0
 1889 006e 7B62     	 str r3,[r7,#36]
 1890              	.L122:
 1891 0070 FB69     	 ldr r3,[r7,#28]
 1892 0072 FB60     	 str r3,[r7,#12]
 1893              	.LBB129:
 1894              	.LBB130:
 1895              	 .loc 2 229 0
 1896 0074 FB68     	 ldr r3,[r7,#12]
 1897              	
 1898 0076 83F31188 	 msr basepri,r3
 1899              	
 1900              	 .thumb
 1901              	.LBE130:
 1902              	.LBE129:
 982:../Dave/Generated/FREERTOS/stream_buffer.c **** 		}
 983:../Dave/Generated/FREERTOS/stream_buffer.c **** 	}
 984:../Dave/Generated/FREERTOS/stream_buffer.c **** 	portCLEAR_INTERRUPT_MASK_FROM_ISR( uxSavedInterruptStatus );
 985:../Dave/Generated/FREERTOS/stream_buffer.c **** 
 986:../Dave/Generated/FREERTOS/stream_buffer.c **** 	return xReturn;
 1903              	 .loc 1 986 0
 1904 007a 7B6A     	 ldr r3,[r7,#36]
 987:../Dave/Generated/FREERTOS/stream_buffer.c **** }
 1905              	 .loc 1 987 0
 1906 007c 1846     	 mov r0,r3
 1907 007e 2837     	 adds r7,r7,#40
 1908              	.LCFI76:
 1909              	 .cfi_def_cfa_offset 8
 1910 0080 BD46     	 mov sp,r7
 1911              	.LCFI77:
 1912              	 .cfi_def_cfa_register 13
 1913              	 
 1914 0082 80BD     	 pop {r7,pc}
 1915              	 .cfi_endproc
 1916              	.LFE149:
 1918              	 .section .text.xStreamBufferReceiveCompletedFromISR,"ax",%progbits
 1919              	 .align 2
 1920              	 .global xStreamBufferReceiveCompletedFromISR
 1921              	 .thumb
 1922              	 .thumb_func
 1924              	xStreamBufferReceiveCompletedFromISR:
 1925              	.LFB150:
 988:../Dave/Generated/FREERTOS/stream_buffer.c **** /*-----------------------------------------------------------*/
 989:../Dave/Generated/FREERTOS/stream_buffer.c **** 
 990:../Dave/Generated/FREERTOS/stream_buffer.c **** BaseType_t xStreamBufferReceiveCompletedFromISR( StreamBufferHandle_t xStreamBuffer, BaseType_t *px
 991:../Dave/Generated/FREERTOS/stream_buffer.c **** {
 1926              	 .loc 1 991 0
 1927              	 .cfi_startproc
 1928              	 
 1929              	 
 1930 0000 80B5     	 push {r7,lr}
 1931              	.LCFI78:
 1932              	 .cfi_def_cfa_offset 8
 1933              	 .cfi_offset 7,-8
 1934              	 .cfi_offset 14,-4
 1935 0002 8CB0     	 sub sp,sp,#48
 1936              	.LCFI79:
 1937              	 .cfi_def_cfa_offset 56
 1938 0004 02AF     	 add r7,sp,#8
 1939              	.LCFI80:
 1940              	 .cfi_def_cfa 7,48
 1941 0006 7860     	 str r0,[r7,#4]
 1942 0008 3960     	 str r1,[r7]
 992:../Dave/Generated/FREERTOS/stream_buffer.c **** StreamBuffer_t * const pxStreamBuffer = ( StreamBuffer_t * ) xStreamBuffer; /*lint !e9087 !e9079 Sa
 1943              	 .loc 1 992 0
 1944 000a 7B68     	 ldr r3,[r7,#4]
 1945 000c 3B62     	 str r3,[r7,#32]
 993:../Dave/Generated/FREERTOS/stream_buffer.c **** BaseType_t xReturn;
 994:../Dave/Generated/FREERTOS/stream_buffer.c **** UBaseType_t uxSavedInterruptStatus;
 995:../Dave/Generated/FREERTOS/stream_buffer.c **** 
 996:../Dave/Generated/FREERTOS/stream_buffer.c **** 	configASSERT( pxStreamBuffer );
 1946              	 .loc 1 996 0
 1947 000e 3B6A     	 ldr r3,[r7,#32]
 1948 0010 002B     	 cmp r3,#0
 1949 0012 09D1     	 bne .L125
 1950              	.LBB131:
 1951              	.LBB132:
 195:../Dave/Generated/FREERTOS/portable/GCC/portmacro.h **** 	(
 1952              	 .loc 2 195 0 discriminator 1
 1953              	
 1954 0014 4FF0FC03 	 mov r3,#252
 1955 0018 83F31188 	 msr basepri,r3
 1956 001c BFF36F8F 	 isb 
 1957 0020 BFF34F8F 	 dsb 
 1958              	
 1959              	
 1960              	 .thumb
 1961 0024 BB61     	 str r3,[r7,#24]
 1962              	.L126:
 1963              	.LBE132:
 1964              	.LBE131:
 1965              	 .loc 1 996 0 discriminator 1
 1966 0026 FEE7     	 b .L126
 1967              	.L125:
 1968              	.LBB133:
 1969              	.LBB134:
 211:../Dave/Generated/FREERTOS/portable/GCC/portmacro.h **** 	(
 1970              	 .loc 2 211 0
 1971              	
 1972 0028 EFF31182 	 mrs r2,basepri
 1973 002c 4FF0FC03 	 mov r3,#252
 1974 0030 83F31188 	 msr basepri,r3
 1975 0034 BFF36F8F 	 isb 
 1976 0038 BFF34F8F 	 dsb 
 1977              	
 1978              	
 1979              	 .thumb
 1980 003c 7A61     	 str r2,[r7,#20]
 1981 003e 3B61     	 str r3,[r7,#16]
 223:../Dave/Generated/FREERTOS/portable/GCC/portmacro.h **** }
 1982              	 .loc 2 223 0
 1983 0040 7B69     	 ldr r3,[r7,#20]
 1984              	.LBE134:
 1985              	.LBE133:
 997:../Dave/Generated/FREERTOS/stream_buffer.c **** 
 998:../Dave/Generated/FREERTOS/stream_buffer.c **** 	uxSavedInterruptStatus = ( UBaseType_t ) portSET_INTERRUPT_MASK_FROM_ISR();
 1986              	 .loc 1 998 0
 1987 0042 FB61     	 str r3,[r7,#28]
 999:../Dave/Generated/FREERTOS/stream_buffer.c **** 	{
1000:../Dave/Generated/FREERTOS/stream_buffer.c **** 		if( ( pxStreamBuffer )->xTaskWaitingToSend != NULL )
 1988              	 .loc 1 1000 0
 1989 0044 3B6A     	 ldr r3,[r7,#32]
 1990 0046 5B69     	 ldr r3,[r3,#20]
 1991 0048 002B     	 cmp r3,#0
 1992 004a 0FD0     	 beq .L128
1001:../Dave/Generated/FREERTOS/stream_buffer.c **** 		{
1002:../Dave/Generated/FREERTOS/stream_buffer.c **** 			( void ) xTaskNotifyFromISR( ( pxStreamBuffer )->xTaskWaitingToSend,
 1993              	 .loc 1 1002 0
 1994 004c 3B6A     	 ldr r3,[r7,#32]
 1995 004e 5A69     	 ldr r2,[r3,#20]
 1996 0050 3B68     	 ldr r3,[r7]
 1997 0052 0093     	 str r3,[sp]
 1998 0054 1046     	 mov r0,r2
 1999 0056 0021     	 movs r1,#0
 2000 0058 0022     	 movs r2,#0
 2001 005a 0023     	 movs r3,#0
 2002 005c FFF7FEFF 	 bl xTaskGenericNotifyFromISR
1003:../Dave/Generated/FREERTOS/stream_buffer.c **** 										 ( uint32_t ) 0,
1004:../Dave/Generated/FREERTOS/stream_buffer.c **** 										 eNoAction,
1005:../Dave/Generated/FREERTOS/stream_buffer.c **** 										 pxHigherPriorityTaskWoken );
1006:../Dave/Generated/FREERTOS/stream_buffer.c **** 			( pxStreamBuffer )->xTaskWaitingToSend = NULL;
 2003              	 .loc 1 1006 0
 2004 0060 3B6A     	 ldr r3,[r7,#32]
 2005 0062 0022     	 movs r2,#0
 2006 0064 5A61     	 str r2,[r3,#20]
1007:../Dave/Generated/FREERTOS/stream_buffer.c **** 			xReturn = pdTRUE;
 2007              	 .loc 1 1007 0
 2008 0066 0123     	 movs r3,#1
 2009 0068 7B62     	 str r3,[r7,#36]
 2010 006a 01E0     	 b .L129
 2011              	.L128:
1008:../Dave/Generated/FREERTOS/stream_buffer.c **** 		}
1009:../Dave/Generated/FREERTOS/stream_buffer.c **** 		else
1010:../Dave/Generated/FREERTOS/stream_buffer.c **** 		{
1011:../Dave/Generated/FREERTOS/stream_buffer.c **** 			xReturn = pdFALSE;
 2012              	 .loc 1 1011 0
 2013 006c 0023     	 movs r3,#0
 2014 006e 7B62     	 str r3,[r7,#36]
 2015              	.L129:
 2016 0070 FB69     	 ldr r3,[r7,#28]
 2017 0072 FB60     	 str r3,[r7,#12]
 2018              	.LBB135:
 2019              	.LBB136:
 2020              	 .loc 2 229 0
 2021 0074 FB68     	 ldr r3,[r7,#12]
 2022              	
 2023 0076 83F31188 	 msr basepri,r3
 2024              	
 2025              	 .thumb
 2026              	.LBE136:
 2027              	.LBE135:
1012:../Dave/Generated/FREERTOS/stream_buffer.c **** 		}
1013:../Dave/Generated/FREERTOS/stream_buffer.c **** 	}
1014:../Dave/Generated/FREERTOS/stream_buffer.c **** 	portCLEAR_INTERRUPT_MASK_FROM_ISR( uxSavedInterruptStatus );
1015:../Dave/Generated/FREERTOS/stream_buffer.c **** 
1016:../Dave/Generated/FREERTOS/stream_buffer.c **** 	return xReturn;
 2028              	 .loc 1 1016 0
 2029 007a 7B6A     	 ldr r3,[r7,#36]
1017:../Dave/Generated/FREERTOS/stream_buffer.c **** }
 2030              	 .loc 1 1017 0
 2031 007c 1846     	 mov r0,r3
 2032 007e 2837     	 adds r7,r7,#40
 2033              	.LCFI81:
 2034              	 .cfi_def_cfa_offset 8
 2035 0080 BD46     	 mov sp,r7
 2036              	.LCFI82:
 2037              	 .cfi_def_cfa_register 13
 2038              	 
 2039 0082 80BD     	 pop {r7,pc}
 2040              	 .cfi_endproc
 2041              	.LFE150:
 2043              	 .section .text.prvWriteBytesToBuffer,"ax",%progbits
 2044              	 .align 2
 2045              	 .thumb
 2046              	 .thumb_func
 2048              	prvWriteBytesToBuffer:
 2049              	.LFB151:
1018:../Dave/Generated/FREERTOS/stream_buffer.c **** /*-----------------------------------------------------------*/
1019:../Dave/Generated/FREERTOS/stream_buffer.c **** 
1020:../Dave/Generated/FREERTOS/stream_buffer.c **** static size_t prvWriteBytesToBuffer( StreamBuffer_t * const pxStreamBuffer, const uint8_t *pucData,
1021:../Dave/Generated/FREERTOS/stream_buffer.c **** {
 2050              	 .loc 1 1021 0
 2051              	 .cfi_startproc
 2052              	 
 2053              	 
 2054 0000 80B5     	 push {r7,lr}
 2055              	.LCFI83:
 2056              	 .cfi_def_cfa_offset 8
 2057              	 .cfi_offset 7,-8
 2058              	 .cfi_offset 14,-4
 2059 0002 8AB0     	 sub sp,sp,#40
 2060              	.LCFI84:
 2061              	 .cfi_def_cfa_offset 48
 2062 0004 00AF     	 add r7,sp,#0
 2063              	.LCFI85:
 2064              	 .cfi_def_cfa_register 7
 2065 0006 F860     	 str r0,[r7,#12]
 2066 0008 B960     	 str r1,[r7,#8]
 2067 000a 7A60     	 str r2,[r7,#4]
1022:../Dave/Generated/FREERTOS/stream_buffer.c **** size_t xNextHead, xFirstLength;
1023:../Dave/Generated/FREERTOS/stream_buffer.c **** 
1024:../Dave/Generated/FREERTOS/stream_buffer.c **** 	configASSERT( xCount > ( size_t ) 0 );
 2068              	 .loc 1 1024 0
 2069 000c 7B68     	 ldr r3,[r7,#4]
 2070 000e 002B     	 cmp r3,#0
 2071 0010 09D1     	 bne .L132
 2072              	.LBB137:
 2073              	.LBB138:
 195:../Dave/Generated/FREERTOS/portable/GCC/portmacro.h **** 	(
 2074              	 .loc 2 195 0 discriminator 1
 2075              	
 2076 0012 4FF0FC03 	 mov r3,#252
 2077 0016 83F31188 	 msr basepri,r3
 2078 001a BFF36F8F 	 isb 
 2079 001e BFF34F8F 	 dsb 
 2080              	
 2081              	
 2082              	 .thumb
 2083 0022 FB61     	 str r3,[r7,#28]
 2084              	.L133:
 2085              	.LBE138:
 2086              	.LBE137:
 2087              	 .loc 1 1024 0 discriminator 1
 2088 0024 FEE7     	 b .L133
 2089              	.L132:
1025:../Dave/Generated/FREERTOS/stream_buffer.c **** 
1026:../Dave/Generated/FREERTOS/stream_buffer.c **** 	xNextHead = pxStreamBuffer->xHead;
 2090              	 .loc 1 1026 0
 2091 0026 FB68     	 ldr r3,[r7,#12]
 2092 0028 5B68     	 ldr r3,[r3,#4]
 2093 002a 7B62     	 str r3,[r7,#36]
1027:../Dave/Generated/FREERTOS/stream_buffer.c **** 
1028:../Dave/Generated/FREERTOS/stream_buffer.c **** 	/* Calculate the number of bytes that can be added in the first write -
1029:../Dave/Generated/FREERTOS/stream_buffer.c **** 	which may be less than the total number of bytes that need to be added if
1030:../Dave/Generated/FREERTOS/stream_buffer.c **** 	the buffer will wrap back to the beginning. */
1031:../Dave/Generated/FREERTOS/stream_buffer.c **** 	xFirstLength = configMIN( pxStreamBuffer->xLength - xNextHead, xCount );
 2094              	 .loc 1 1031 0
 2095 002c FB68     	 ldr r3,[r7,#12]
 2096 002e 9A68     	 ldr r2,[r3,#8]
 2097 0030 7B6A     	 ldr r3,[r7,#36]
 2098 0032 D21A     	 subs r2,r2,r3
 2099 0034 7B68     	 ldr r3,[r7,#4]
 2100 0036 9342     	 cmp r3,r2
 2101 0038 28BF     	 it cs
 2102 003a 1346     	 movcs r3,r2
 2103 003c 3B62     	 str r3,[r7,#32]
1032:../Dave/Generated/FREERTOS/stream_buffer.c **** 
1033:../Dave/Generated/FREERTOS/stream_buffer.c **** 	/* Write as many bytes as can be written in the first write. */
1034:../Dave/Generated/FREERTOS/stream_buffer.c **** 	configASSERT( ( xNextHead + xFirstLength ) <= pxStreamBuffer->xLength );
 2104              	 .loc 1 1034 0
 2105 003e 7A6A     	 ldr r2,[r7,#36]
 2106 0040 3B6A     	 ldr r3,[r7,#32]
 2107 0042 1A44     	 add r2,r2,r3
 2108 0044 FB68     	 ldr r3,[r7,#12]
 2109 0046 9B68     	 ldr r3,[r3,#8]
 2110 0048 9A42     	 cmp r2,r3
 2111 004a 09D9     	 bls .L134
 2112              	.LBB139:
 2113              	.LBB140:
 195:../Dave/Generated/FREERTOS/portable/GCC/portmacro.h **** 	(
 2114              	 .loc 2 195 0 discriminator 1
 2115              	
 2116 004c 4FF0FC03 	 mov r3,#252
 2117 0050 83F31188 	 msr basepri,r3
 2118 0054 BFF36F8F 	 isb 
 2119 0058 BFF34F8F 	 dsb 
 2120              	
 2121              	
 2122              	 .thumb
 2123 005c BB61     	 str r3,[r7,#24]
 2124              	.L135:
 2125              	.LBE140:
 2126              	.LBE139:
 2127              	 .loc 1 1034 0 discriminator 2
 2128 005e FEE7     	 b .L135
 2129              	.L134:
1035:../Dave/Generated/FREERTOS/stream_buffer.c **** 	memcpy( ( void* ) ( &( pxStreamBuffer->pucBuffer[ xNextHead ] ) ), ( const void * ) pucData, xFirs
 2130              	 .loc 1 1035 0
 2131 0060 FB68     	 ldr r3,[r7,#12]
 2132 0062 9A69     	 ldr r2,[r3,#24]
 2133 0064 7B6A     	 ldr r3,[r7,#36]
 2134 0066 1344     	 add r3,r3,r2
 2135 0068 1846     	 mov r0,r3
 2136 006a B968     	 ldr r1,[r7,#8]
 2137 006c 3A6A     	 ldr r2,[r7,#32]
 2138 006e FFF7FEFF 	 bl memcpy
1036:../Dave/Generated/FREERTOS/stream_buffer.c **** 
1037:../Dave/Generated/FREERTOS/stream_buffer.c **** 	/* If the number of bytes written was less than the number that could be
1038:../Dave/Generated/FREERTOS/stream_buffer.c **** 	written in the first write... */
1039:../Dave/Generated/FREERTOS/stream_buffer.c **** 	if( xCount > xFirstLength )
 2139              	 .loc 1 1039 0
 2140 0072 7A68     	 ldr r2,[r7,#4]
 2141 0074 3B6A     	 ldr r3,[r7,#32]
 2142 0076 9A42     	 cmp r2,r3
 2143 0078 1BD9     	 bls .L136
1040:../Dave/Generated/FREERTOS/stream_buffer.c **** 	{
1041:../Dave/Generated/FREERTOS/stream_buffer.c **** 		/* ...then write the remaining bytes to the start of the buffer. */
1042:../Dave/Generated/FREERTOS/stream_buffer.c **** 		configASSERT( ( xCount - xFirstLength ) <= pxStreamBuffer->xLength );
 2144              	 .loc 1 1042 0
 2145 007a 7A68     	 ldr r2,[r7,#4]
 2146 007c 3B6A     	 ldr r3,[r7,#32]
 2147 007e D21A     	 subs r2,r2,r3
 2148 0080 FB68     	 ldr r3,[r7,#12]
 2149 0082 9B68     	 ldr r3,[r3,#8]
 2150 0084 9A42     	 cmp r2,r3
 2151 0086 09D9     	 bls .L137
 2152              	.LBB141:
 2153              	.LBB142:
 195:../Dave/Generated/FREERTOS/portable/GCC/portmacro.h **** 	(
 2154              	 .loc 2 195 0 discriminator 1
 2155              	
 2156 0088 4FF0FC03 	 mov r3,#252
 2157 008c 83F31188 	 msr basepri,r3
 2158 0090 BFF36F8F 	 isb 
 2159 0094 BFF34F8F 	 dsb 
 2160              	
 2161              	
 2162              	 .thumb
 2163 0098 7B61     	 str r3,[r7,#20]
 2164              	.L138:
 2165              	.LBE142:
 2166              	.LBE141:
 2167              	 .loc 1 1042 0 discriminator 3
 2168 009a FEE7     	 b .L138
 2169              	.L137:
1043:../Dave/Generated/FREERTOS/stream_buffer.c **** 		memcpy( ( void * ) pxStreamBuffer->pucBuffer, ( const void * ) &( pucData[ xFirstLength ] ), xCou
 2170              	 .loc 1 1043 0
 2171 009c FB68     	 ldr r3,[r7,#12]
 2172 009e 9869     	 ldr r0,[r3,#24]
 2173 00a0 BA68     	 ldr r2,[r7,#8]
 2174 00a2 3B6A     	 ldr r3,[r7,#32]
 2175 00a4 D118     	 adds r1,r2,r3
 2176 00a6 7A68     	 ldr r2,[r7,#4]
 2177 00a8 3B6A     	 ldr r3,[r7,#32]
 2178 00aa D31A     	 subs r3,r2,r3
 2179 00ac 1A46     	 mov r2,r3
 2180 00ae FFF7FEFF 	 bl memcpy
 2181              	.L136:
1044:../Dave/Generated/FREERTOS/stream_buffer.c **** 	}
1045:../Dave/Generated/FREERTOS/stream_buffer.c **** 	else
1046:../Dave/Generated/FREERTOS/stream_buffer.c **** 	{
1047:../Dave/Generated/FREERTOS/stream_buffer.c **** 		mtCOVERAGE_TEST_MARKER();
1048:../Dave/Generated/FREERTOS/stream_buffer.c **** 	}
1049:../Dave/Generated/FREERTOS/stream_buffer.c **** 
1050:../Dave/Generated/FREERTOS/stream_buffer.c **** 	xNextHead += xCount;
 2182              	 .loc 1 1050 0
 2183 00b2 7A6A     	 ldr r2,[r7,#36]
 2184 00b4 7B68     	 ldr r3,[r7,#4]
 2185 00b6 1344     	 add r3,r3,r2
 2186 00b8 7B62     	 str r3,[r7,#36]
1051:../Dave/Generated/FREERTOS/stream_buffer.c **** 	if( xNextHead >= pxStreamBuffer->xLength )
 2187              	 .loc 1 1051 0
 2188 00ba FB68     	 ldr r3,[r7,#12]
 2189 00bc 9A68     	 ldr r2,[r3,#8]
 2190 00be 7B6A     	 ldr r3,[r7,#36]
 2191 00c0 9A42     	 cmp r2,r3
 2192 00c2 04D8     	 bhi .L139
1052:../Dave/Generated/FREERTOS/stream_buffer.c **** 	{
1053:../Dave/Generated/FREERTOS/stream_buffer.c **** 		xNextHead -= pxStreamBuffer->xLength;
 2193              	 .loc 1 1053 0
 2194 00c4 FB68     	 ldr r3,[r7,#12]
 2195 00c6 9B68     	 ldr r3,[r3,#8]
 2196 00c8 7A6A     	 ldr r2,[r7,#36]
 2197 00ca D31A     	 subs r3,r2,r3
 2198 00cc 7B62     	 str r3,[r7,#36]
 2199              	.L139:
1054:../Dave/Generated/FREERTOS/stream_buffer.c **** 	}
1055:../Dave/Generated/FREERTOS/stream_buffer.c **** 	else
1056:../Dave/Generated/FREERTOS/stream_buffer.c **** 	{
1057:../Dave/Generated/FREERTOS/stream_buffer.c **** 		mtCOVERAGE_TEST_MARKER();
1058:../Dave/Generated/FREERTOS/stream_buffer.c **** 	}
1059:../Dave/Generated/FREERTOS/stream_buffer.c **** 
1060:../Dave/Generated/FREERTOS/stream_buffer.c **** 	pxStreamBuffer->xHead = xNextHead;
 2200              	 .loc 1 1060 0
 2201 00ce FB68     	 ldr r3,[r7,#12]
 2202 00d0 7A6A     	 ldr r2,[r7,#36]
 2203 00d2 5A60     	 str r2,[r3,#4]
1061:../Dave/Generated/FREERTOS/stream_buffer.c **** 
1062:../Dave/Generated/FREERTOS/stream_buffer.c **** 	return xCount;
 2204              	 .loc 1 1062 0
 2205 00d4 7B68     	 ldr r3,[r7,#4]
1063:../Dave/Generated/FREERTOS/stream_buffer.c **** }
 2206              	 .loc 1 1063 0
 2207 00d6 1846     	 mov r0,r3
 2208 00d8 2837     	 adds r7,r7,#40
 2209              	.LCFI86:
 2210              	 .cfi_def_cfa_offset 8
 2211 00da BD46     	 mov sp,r7
 2212              	.LCFI87:
 2213              	 .cfi_def_cfa_register 13
 2214              	 
 2215 00dc 80BD     	 pop {r7,pc}
 2216              	 .cfi_endproc
 2217              	.LFE151:
 2219 00de 00BF     	 .section .text.prvReadBytesFromBuffer,"ax",%progbits
 2220              	 .align 2
 2221              	 .thumb
 2222              	 .thumb_func
 2224              	prvReadBytesFromBuffer:
 2225              	.LFB152:
1064:../Dave/Generated/FREERTOS/stream_buffer.c **** /*-----------------------------------------------------------*/
1065:../Dave/Generated/FREERTOS/stream_buffer.c **** 
1066:../Dave/Generated/FREERTOS/stream_buffer.c **** static size_t prvReadBytesFromBuffer( StreamBuffer_t *pxStreamBuffer, uint8_t *pucData, size_t xMax
1067:../Dave/Generated/FREERTOS/stream_buffer.c **** {
 2226              	 .loc 1 1067 0
 2227              	 .cfi_startproc
 2228              	 
 2229              	 
 2230 0000 80B5     	 push {r7,lr}
 2231              	.LCFI88:
 2232              	 .cfi_def_cfa_offset 8
 2233              	 .cfi_offset 7,-8
 2234              	 .cfi_offset 14,-4
 2235 0002 8AB0     	 sub sp,sp,#40
 2236              	.LCFI89:
 2237              	 .cfi_def_cfa_offset 48
 2238 0004 00AF     	 add r7,sp,#0
 2239              	.LCFI90:
 2240              	 .cfi_def_cfa_register 7
 2241 0006 F860     	 str r0,[r7,#12]
 2242 0008 B960     	 str r1,[r7,#8]
 2243 000a 7A60     	 str r2,[r7,#4]
 2244 000c 3B60     	 str r3,[r7]
1068:../Dave/Generated/FREERTOS/stream_buffer.c **** size_t xCount, xFirstLength, xNextTail;
1069:../Dave/Generated/FREERTOS/stream_buffer.c **** 
1070:../Dave/Generated/FREERTOS/stream_buffer.c **** 	/* Use the minimum of the wanted bytes and the available bytes. */
1071:../Dave/Generated/FREERTOS/stream_buffer.c **** 	xCount = configMIN( xBytesAvailable, xMaxCount );
 2245              	 .loc 1 1071 0
 2246 000e 7A68     	 ldr r2,[r7,#4]
 2247 0010 3B68     	 ldr r3,[r7]
 2248 0012 9342     	 cmp r3,r2
 2249 0014 28BF     	 it cs
 2250 0016 1346     	 movcs r3,r2
 2251 0018 3B62     	 str r3,[r7,#32]
1072:../Dave/Generated/FREERTOS/stream_buffer.c **** 
1073:../Dave/Generated/FREERTOS/stream_buffer.c **** 	if( xCount > ( size_t ) 0 )
 2252              	 .loc 1 1073 0
 2253 001a 3B6A     	 ldr r3,[r7,#32]
 2254 001c 002B     	 cmp r3,#0
 2255 001e 61D0     	 beq .L142
1074:../Dave/Generated/FREERTOS/stream_buffer.c **** 	{
1075:../Dave/Generated/FREERTOS/stream_buffer.c **** 		xNextTail = pxStreamBuffer->xTail;
 2256              	 .loc 1 1075 0
 2257 0020 FB68     	 ldr r3,[r7,#12]
 2258 0022 1B68     	 ldr r3,[r3]
 2259 0024 7B62     	 str r3,[r7,#36]
1076:../Dave/Generated/FREERTOS/stream_buffer.c **** 
1077:../Dave/Generated/FREERTOS/stream_buffer.c **** 		/* Calculate the number of bytes that can be read - which may be
1078:../Dave/Generated/FREERTOS/stream_buffer.c **** 		less than the number wanted if the data wraps around to the start of
1079:../Dave/Generated/FREERTOS/stream_buffer.c **** 		the buffer. */
1080:../Dave/Generated/FREERTOS/stream_buffer.c **** 		xFirstLength = configMIN( pxStreamBuffer->xLength - xNextTail, xCount );
 2260              	 .loc 1 1080 0
 2261 0026 FB68     	 ldr r3,[r7,#12]
 2262 0028 9A68     	 ldr r2,[r3,#8]
 2263 002a 7B6A     	 ldr r3,[r7,#36]
 2264 002c D21A     	 subs r2,r2,r3
 2265 002e 3B6A     	 ldr r3,[r7,#32]
 2266 0030 9342     	 cmp r3,r2
 2267 0032 28BF     	 it cs
 2268 0034 1346     	 movcs r3,r2
 2269 0036 FB61     	 str r3,[r7,#28]
1081:../Dave/Generated/FREERTOS/stream_buffer.c **** 
1082:../Dave/Generated/FREERTOS/stream_buffer.c **** 		/* Obtain the number of bytes it is possible to obtain in the first
1083:../Dave/Generated/FREERTOS/stream_buffer.c **** 		read.  Asserts check bounds of read and write. */
1084:../Dave/Generated/FREERTOS/stream_buffer.c **** 		configASSERT( xFirstLength <= xMaxCount );
 2270              	 .loc 1 1084 0
 2271 0038 FA69     	 ldr r2,[r7,#28]
 2272 003a 7B68     	 ldr r3,[r7,#4]
 2273 003c 9A42     	 cmp r2,r3
 2274 003e 09D9     	 bls .L143
 2275              	.LBB143:
 2276              	.LBB144:
 195:../Dave/Generated/FREERTOS/portable/GCC/portmacro.h **** 	(
 2277              	 .loc 2 195 0 discriminator 1
 2278              	
 2279 0040 4FF0FC03 	 mov r3,#252
 2280 0044 83F31188 	 msr basepri,r3
 2281 0048 BFF36F8F 	 isb 
 2282 004c BFF34F8F 	 dsb 
 2283              	
 2284              	
 2285              	 .thumb
 2286 0050 BB61     	 str r3,[r7,#24]
 2287              	.L144:
 2288              	.LBE144:
 2289              	.LBE143:
 2290              	 .loc 1 1084 0 discriminator 1
 2291 0052 FEE7     	 b .L144
 2292              	.L143:
1085:../Dave/Generated/FREERTOS/stream_buffer.c **** 		configASSERT( ( xNextTail + xFirstLength ) <= pxStreamBuffer->xLength );
 2293              	 .loc 1 1085 0
 2294 0054 7A6A     	 ldr r2,[r7,#36]
 2295 0056 FB69     	 ldr r3,[r7,#28]
 2296 0058 1A44     	 add r2,r2,r3
 2297 005a FB68     	 ldr r3,[r7,#12]
 2298 005c 9B68     	 ldr r3,[r3,#8]
 2299 005e 9A42     	 cmp r2,r3
 2300 0060 09D9     	 bls .L145
 2301              	.LBB145:
 2302              	.LBB146:
 195:../Dave/Generated/FREERTOS/portable/GCC/portmacro.h **** 	(
 2303              	 .loc 2 195 0 discriminator 1
 2304              	
 2305 0062 4FF0FC03 	 mov r3,#252
 2306 0066 83F31188 	 msr basepri,r3
 2307 006a BFF36F8F 	 isb 
 2308 006e BFF34F8F 	 dsb 
 2309              	
 2310              	
 2311              	 .thumb
 2312 0072 7B61     	 str r3,[r7,#20]
 2313              	.L146:
 2314              	.LBE146:
 2315              	.LBE145:
 2316              	 .loc 1 1085 0 discriminator 2
 2317 0074 FEE7     	 b .L146
 2318              	.L145:
1086:../Dave/Generated/FREERTOS/stream_buffer.c **** 		memcpy( ( void * ) pucData, ( const void * ) &( pxStreamBuffer->pucBuffer[ xNextTail ] ), xFirstL
 2319              	 .loc 1 1086 0
 2320 0076 FB68     	 ldr r3,[r7,#12]
 2321 0078 9A69     	 ldr r2,[r3,#24]
 2322 007a 7B6A     	 ldr r3,[r7,#36]
 2323 007c 1344     	 add r3,r3,r2
 2324 007e B868     	 ldr r0,[r7,#8]
 2325 0080 1946     	 mov r1,r3
 2326 0082 FA69     	 ldr r2,[r7,#28]
 2327 0084 FFF7FEFF 	 bl memcpy
1087:../Dave/Generated/FREERTOS/stream_buffer.c **** 
1088:../Dave/Generated/FREERTOS/stream_buffer.c **** 		/* If the total number of wanted bytes is greater than the number
1089:../Dave/Generated/FREERTOS/stream_buffer.c **** 		that could be read in the first read... */
1090:../Dave/Generated/FREERTOS/stream_buffer.c **** 		if( xCount > xFirstLength )
 2328              	 .loc 1 1090 0
 2329 0088 3A6A     	 ldr r2,[r7,#32]
 2330 008a FB69     	 ldr r3,[r7,#28]
 2331 008c 9A42     	 cmp r2,r3
 2332 008e 18D9     	 bls .L147
1091:../Dave/Generated/FREERTOS/stream_buffer.c **** 		{
1092:../Dave/Generated/FREERTOS/stream_buffer.c **** 			/*...then read the remaining bytes from the start of the buffer. */
1093:../Dave/Generated/FREERTOS/stream_buffer.c **** 			configASSERT( xCount <= xMaxCount );
 2333              	 .loc 1 1093 0
 2334 0090 3A6A     	 ldr r2,[r7,#32]
 2335 0092 7B68     	 ldr r3,[r7,#4]
 2336 0094 9A42     	 cmp r2,r3
 2337 0096 09D9     	 bls .L148
 2338              	.LBB147:
 2339              	.LBB148:
 195:../Dave/Generated/FREERTOS/portable/GCC/portmacro.h **** 	(
 2340              	 .loc 2 195 0 discriminator 1
 2341              	
 2342 0098 4FF0FC03 	 mov r3,#252
 2343 009c 83F31188 	 msr basepri,r3
 2344 00a0 BFF36F8F 	 isb 
 2345 00a4 BFF34F8F 	 dsb 
 2346              	
 2347              	
 2348              	 .thumb
 2349 00a8 3B61     	 str r3,[r7,#16]
 2350              	.L149:
 2351              	.LBE148:
 2352              	.LBE147:
 2353              	 .loc 1 1093 0 discriminator 3
 2354 00aa FEE7     	 b .L149
 2355              	.L148:
1094:../Dave/Generated/FREERTOS/stream_buffer.c **** 			memcpy( ( void * ) &( pucData[ xFirstLength ] ), ( void * ) ( pxStreamBuffer->pucBuffer ), xCoun
 2356              	 .loc 1 1094 0
 2357 00ac BA68     	 ldr r2,[r7,#8]
 2358 00ae FB69     	 ldr r3,[r7,#28]
 2359 00b0 D018     	 adds r0,r2,r3
 2360 00b2 FB68     	 ldr r3,[r7,#12]
 2361 00b4 9969     	 ldr r1,[r3,#24]
 2362 00b6 3A6A     	 ldr r2,[r7,#32]
 2363 00b8 FB69     	 ldr r3,[r7,#28]
 2364 00ba D31A     	 subs r3,r2,r3
 2365 00bc 1A46     	 mov r2,r3
 2366 00be FFF7FEFF 	 bl memcpy
 2367              	.L147:
1095:../Dave/Generated/FREERTOS/stream_buffer.c **** 		}
1096:../Dave/Generated/FREERTOS/stream_buffer.c **** 		else
1097:../Dave/Generated/FREERTOS/stream_buffer.c **** 		{
1098:../Dave/Generated/FREERTOS/stream_buffer.c **** 			mtCOVERAGE_TEST_MARKER();
1099:../Dave/Generated/FREERTOS/stream_buffer.c **** 		}
1100:../Dave/Generated/FREERTOS/stream_buffer.c **** 
1101:../Dave/Generated/FREERTOS/stream_buffer.c **** 		/* Move the tail pointer to effectively remove the data read from
1102:../Dave/Generated/FREERTOS/stream_buffer.c **** 		the buffer. */
1103:../Dave/Generated/FREERTOS/stream_buffer.c **** 		xNextTail += xCount;
 2368              	 .loc 1 1103 0
 2369 00c2 7A6A     	 ldr r2,[r7,#36]
 2370 00c4 3B6A     	 ldr r3,[r7,#32]
 2371 00c6 1344     	 add r3,r3,r2
 2372 00c8 7B62     	 str r3,[r7,#36]
1104:../Dave/Generated/FREERTOS/stream_buffer.c **** 
1105:../Dave/Generated/FREERTOS/stream_buffer.c **** 		if( xNextTail >= pxStreamBuffer->xLength )
 2373              	 .loc 1 1105 0
 2374 00ca FB68     	 ldr r3,[r7,#12]
 2375 00cc 9A68     	 ldr r2,[r3,#8]
 2376 00ce 7B6A     	 ldr r3,[r7,#36]
 2377 00d0 9A42     	 cmp r2,r3
 2378 00d2 04D8     	 bhi .L150
1106:../Dave/Generated/FREERTOS/stream_buffer.c **** 		{
1107:../Dave/Generated/FREERTOS/stream_buffer.c **** 			xNextTail -= pxStreamBuffer->xLength;
 2379              	 .loc 1 1107 0
 2380 00d4 FB68     	 ldr r3,[r7,#12]
 2381 00d6 9B68     	 ldr r3,[r3,#8]
 2382 00d8 7A6A     	 ldr r2,[r7,#36]
 2383 00da D31A     	 subs r3,r2,r3
 2384 00dc 7B62     	 str r3,[r7,#36]
 2385              	.L150:
1108:../Dave/Generated/FREERTOS/stream_buffer.c **** 		}
1109:../Dave/Generated/FREERTOS/stream_buffer.c **** 
1110:../Dave/Generated/FREERTOS/stream_buffer.c **** 		pxStreamBuffer->xTail = xNextTail;
 2386              	 .loc 1 1110 0
 2387 00de FB68     	 ldr r3,[r7,#12]
 2388 00e0 7A6A     	 ldr r2,[r7,#36]
 2389 00e2 1A60     	 str r2,[r3]
 2390              	.L142:
1111:../Dave/Generated/FREERTOS/stream_buffer.c **** 	}
1112:../Dave/Generated/FREERTOS/stream_buffer.c **** 	else
1113:../Dave/Generated/FREERTOS/stream_buffer.c **** 	{
1114:../Dave/Generated/FREERTOS/stream_buffer.c **** 		mtCOVERAGE_TEST_MARKER();
1115:../Dave/Generated/FREERTOS/stream_buffer.c **** 	}
1116:../Dave/Generated/FREERTOS/stream_buffer.c **** 
1117:../Dave/Generated/FREERTOS/stream_buffer.c **** 	return xCount;
 2391              	 .loc 1 1117 0
 2392 00e4 3B6A     	 ldr r3,[r7,#32]
1118:../Dave/Generated/FREERTOS/stream_buffer.c **** }
 2393              	 .loc 1 1118 0
 2394 00e6 1846     	 mov r0,r3
 2395 00e8 2837     	 adds r7,r7,#40
 2396              	.LCFI91:
 2397              	 .cfi_def_cfa_offset 8
 2398 00ea BD46     	 mov sp,r7
 2399              	.LCFI92:
 2400              	 .cfi_def_cfa_register 13
 2401              	 
 2402 00ec 80BD     	 pop {r7,pc}
 2403              	 .cfi_endproc
 2404              	.LFE152:
 2406 00ee 00BF     	 .section .text.prvBytesInBuffer,"ax",%progbits
 2407              	 .align 2
 2408              	 .thumb
 2409              	 .thumb_func
 2411              	prvBytesInBuffer:
 2412              	.LFB153:
1119:../Dave/Generated/FREERTOS/stream_buffer.c **** /*-----------------------------------------------------------*/
1120:../Dave/Generated/FREERTOS/stream_buffer.c **** 
1121:../Dave/Generated/FREERTOS/stream_buffer.c **** static size_t prvBytesInBuffer( const StreamBuffer_t * const pxStreamBuffer )
1122:../Dave/Generated/FREERTOS/stream_buffer.c **** {
 2413              	 .loc 1 1122 0
 2414              	 .cfi_startproc
 2415              	 
 2416              	 
 2417              	 
 2418 0000 80B4     	 push {r7}
 2419              	.LCFI93:
 2420              	 .cfi_def_cfa_offset 4
 2421              	 .cfi_offset 7,-4
 2422 0002 85B0     	 sub sp,sp,#20
 2423              	.LCFI94:
 2424              	 .cfi_def_cfa_offset 24
 2425 0004 00AF     	 add r7,sp,#0
 2426              	.LCFI95:
 2427              	 .cfi_def_cfa_register 7
 2428 0006 7860     	 str r0,[r7,#4]
1123:../Dave/Generated/FREERTOS/stream_buffer.c **** /* Returns the distance between xTail and xHead. */
1124:../Dave/Generated/FREERTOS/stream_buffer.c **** size_t xCount;
1125:../Dave/Generated/FREERTOS/stream_buffer.c **** 
1126:../Dave/Generated/FREERTOS/stream_buffer.c **** 	xCount = pxStreamBuffer->xLength + pxStreamBuffer->xHead;
 2429              	 .loc 1 1126 0
 2430 0008 7B68     	 ldr r3,[r7,#4]
 2431 000a 9A68     	 ldr r2,[r3,#8]
 2432 000c 7B68     	 ldr r3,[r7,#4]
 2433 000e 5B68     	 ldr r3,[r3,#4]
 2434 0010 1344     	 add r3,r3,r2
 2435 0012 FB60     	 str r3,[r7,#12]
1127:../Dave/Generated/FREERTOS/stream_buffer.c **** 	xCount -= pxStreamBuffer->xTail;
 2436              	 .loc 1 1127 0
 2437 0014 7B68     	 ldr r3,[r7,#4]
 2438 0016 1B68     	 ldr r3,[r3]
 2439 0018 FA68     	 ldr r2,[r7,#12]
 2440 001a D31A     	 subs r3,r2,r3
 2441 001c FB60     	 str r3,[r7,#12]
1128:../Dave/Generated/FREERTOS/stream_buffer.c **** 	if ( xCount >= pxStreamBuffer->xLength )
 2442              	 .loc 1 1128 0
 2443 001e 7B68     	 ldr r3,[r7,#4]
 2444 0020 9A68     	 ldr r2,[r3,#8]
 2445 0022 FB68     	 ldr r3,[r7,#12]
 2446 0024 9A42     	 cmp r2,r3
 2447 0026 04D8     	 bhi .L153
1129:../Dave/Generated/FREERTOS/stream_buffer.c **** 	{
1130:../Dave/Generated/FREERTOS/stream_buffer.c **** 		xCount -= pxStreamBuffer->xLength;
 2448              	 .loc 1 1130 0
 2449 0028 7B68     	 ldr r3,[r7,#4]
 2450 002a 9B68     	 ldr r3,[r3,#8]
 2451 002c FA68     	 ldr r2,[r7,#12]
 2452 002e D31A     	 subs r3,r2,r3
 2453 0030 FB60     	 str r3,[r7,#12]
 2454              	.L153:
1131:../Dave/Generated/FREERTOS/stream_buffer.c **** 	}
1132:../Dave/Generated/FREERTOS/stream_buffer.c **** 	else
1133:../Dave/Generated/FREERTOS/stream_buffer.c **** 	{
1134:../Dave/Generated/FREERTOS/stream_buffer.c **** 		mtCOVERAGE_TEST_MARKER();
1135:../Dave/Generated/FREERTOS/stream_buffer.c **** 	}
1136:../Dave/Generated/FREERTOS/stream_buffer.c **** 
1137:../Dave/Generated/FREERTOS/stream_buffer.c **** 	return xCount;
 2455              	 .loc 1 1137 0
 2456 0032 FB68     	 ldr r3,[r7,#12]
1138:../Dave/Generated/FREERTOS/stream_buffer.c **** }
 2457              	 .loc 1 1138 0
 2458 0034 1846     	 mov r0,r3
 2459 0036 1437     	 adds r7,r7,#20
 2460              	.LCFI96:
 2461              	 .cfi_def_cfa_offset 4
 2462 0038 BD46     	 mov sp,r7
 2463              	.LCFI97:
 2464              	 .cfi_def_cfa_register 13
 2465              	 
 2466 003a 5DF8047B 	 ldr r7,[sp],#4
 2467              	.LCFI98:
 2468              	 .cfi_restore 7
 2469              	 .cfi_def_cfa_offset 0
 2470 003e 7047     	 bx lr
 2471              	 .cfi_endproc
 2472              	.LFE153:
 2474              	 .section .text.prvInitialiseNewStreamBuffer,"ax",%progbits
 2475              	 .align 2
 2476              	 .thumb
 2477              	 .thumb_func
 2479              	prvInitialiseNewStreamBuffer:
 2480              	.LFB154:
1139:../Dave/Generated/FREERTOS/stream_buffer.c **** /*-----------------------------------------------------------*/
1140:../Dave/Generated/FREERTOS/stream_buffer.c **** 
1141:../Dave/Generated/FREERTOS/stream_buffer.c **** static void prvInitialiseNewStreamBuffer( StreamBuffer_t * const pxStreamBuffer,
1142:../Dave/Generated/FREERTOS/stream_buffer.c **** 										  uint8_t * const pucBuffer,
1143:../Dave/Generated/FREERTOS/stream_buffer.c **** 										  size_t xBufferSizeBytes,
1144:../Dave/Generated/FREERTOS/stream_buffer.c **** 										  size_t xTriggerLevelBytes,
1145:../Dave/Generated/FREERTOS/stream_buffer.c **** 										  BaseType_t xIsMessageBuffer )
1146:../Dave/Generated/FREERTOS/stream_buffer.c **** {
 2481              	 .loc 1 1146 0
 2482              	 .cfi_startproc
 2483              	 
 2484              	 
 2485 0000 80B5     	 push {r7,lr}
 2486              	.LCFI99:
 2487              	 .cfi_def_cfa_offset 8
 2488              	 .cfi_offset 7,-8
 2489              	 .cfi_offset 14,-4
 2490 0002 86B0     	 sub sp,sp,#24
 2491              	.LCFI100:
 2492              	 .cfi_def_cfa_offset 32
 2493 0004 00AF     	 add r7,sp,#0
 2494              	.LCFI101:
 2495              	 .cfi_def_cfa_register 7
 2496 0006 F860     	 str r0,[r7,#12]
 2497 0008 B960     	 str r1,[r7,#8]
 2498 000a 7A60     	 str r2,[r7,#4]
 2499 000c 3B60     	 str r3,[r7]
 2500              	.LBB149:
1147:../Dave/Generated/FREERTOS/stream_buffer.c **** 	/* Assert here is deliberately writing to the entire buffer to ensure it can
1148:../Dave/Generated/FREERTOS/stream_buffer.c **** 	be written to without generating exceptions, and is setting the buffer to a
1149:../Dave/Generated/FREERTOS/stream_buffer.c **** 	known value to assist in development/debugging. */
1150:../Dave/Generated/FREERTOS/stream_buffer.c **** 	#if( configASSERT_DEFINED == 1 )
1151:../Dave/Generated/FREERTOS/stream_buffer.c **** 	{
1152:../Dave/Generated/FREERTOS/stream_buffer.c **** 		/* The value written just has to be identifiable when looking at the
1153:../Dave/Generated/FREERTOS/stream_buffer.c **** 		memory.  Don't use 0xA5 as that is the stack fill value and could
1154:../Dave/Generated/FREERTOS/stream_buffer.c **** 		result in confusion as to what is actually being observed. */
1155:../Dave/Generated/FREERTOS/stream_buffer.c **** 		const BaseType_t xWriteValue = 0x55;
 2501              	 .loc 1 1155 0
 2502 000e 5523     	 movs r3,#85
 2503 0010 7B61     	 str r3,[r7,#20]
1156:../Dave/Generated/FREERTOS/stream_buffer.c **** 		configASSERT( memset( pucBuffer, ( int ) xWriteValue, xBufferSizeBytes ) == pucBuffer );
 2504              	 .loc 1 1156 0
 2505 0012 B868     	 ldr r0,[r7,#8]
 2506 0014 7969     	 ldr r1,[r7,#20]
 2507 0016 7A68     	 ldr r2,[r7,#4]
 2508 0018 FFF7FEFF 	 bl memset
 2509 001c 0246     	 mov r2,r0
 2510 001e BB68     	 ldr r3,[r7,#8]
 2511 0020 9A42     	 cmp r2,r3
 2512 0022 09D0     	 beq .L156
 2513              	.LBB150:
 2514              	.LBB151:
 195:../Dave/Generated/FREERTOS/portable/GCC/portmacro.h **** 	(
 2515              	 .loc 2 195 0 discriminator 1
 2516              	
 2517 0024 4FF0FC03 	 mov r3,#252
 2518 0028 83F31188 	 msr basepri,r3
 2519 002c BFF36F8F 	 isb 
 2520 0030 BFF34F8F 	 dsb 
 2521              	
 2522              	
 2523              	 .thumb
 2524 0034 3B61     	 str r3,[r7,#16]
 2525              	.L157:
 2526              	.LBE151:
 2527              	.LBE150:
 2528              	 .loc 1 1156 0 discriminator 1
 2529 0036 FEE7     	 b .L157
 2530              	.L156:
 2531              	.LBE149:
1157:../Dave/Generated/FREERTOS/stream_buffer.c **** 	}
1158:../Dave/Generated/FREERTOS/stream_buffer.c **** 	#endif
1159:../Dave/Generated/FREERTOS/stream_buffer.c **** 
1160:../Dave/Generated/FREERTOS/stream_buffer.c **** 	memset( ( void * ) pxStreamBuffer, 0x00, sizeof( StreamBuffer_t ) ); /*lint !e9087 memset() requir
 2532              	 .loc 1 1160 0
 2533 0038 F868     	 ldr r0,[r7,#12]
 2534 003a 0021     	 movs r1,#0
 2535 003c 2422     	 movs r2,#36
 2536 003e FFF7FEFF 	 bl memset
1161:../Dave/Generated/FREERTOS/stream_buffer.c **** 	pxStreamBuffer->pucBuffer = pucBuffer;
 2537              	 .loc 1 1161 0
 2538 0042 FB68     	 ldr r3,[r7,#12]
 2539 0044 BA68     	 ldr r2,[r7,#8]
 2540 0046 9A61     	 str r2,[r3,#24]
1162:../Dave/Generated/FREERTOS/stream_buffer.c **** 	pxStreamBuffer->xLength = xBufferSizeBytes;
 2541              	 .loc 1 1162 0
 2542 0048 FB68     	 ldr r3,[r7,#12]
 2543 004a 7A68     	 ldr r2,[r7,#4]
 2544 004c 9A60     	 str r2,[r3,#8]
1163:../Dave/Generated/FREERTOS/stream_buffer.c **** 	pxStreamBuffer->xTriggerLevelBytes = xTriggerLevelBytes;
 2545              	 .loc 1 1163 0
 2546 004e FB68     	 ldr r3,[r7,#12]
 2547 0050 3A68     	 ldr r2,[r7]
 2548 0052 DA60     	 str r2,[r3,#12]
1164:../Dave/Generated/FREERTOS/stream_buffer.c **** 
1165:../Dave/Generated/FREERTOS/stream_buffer.c **** 	if( xIsMessageBuffer != pdFALSE )
 2549              	 .loc 1 1165 0
 2550 0054 3B6A     	 ldr r3,[r7,#32]
 2551 0056 002B     	 cmp r3,#0
 2552 0058 06D0     	 beq .L155
1166:../Dave/Generated/FREERTOS/stream_buffer.c **** 	{
1167:../Dave/Generated/FREERTOS/stream_buffer.c **** 		pxStreamBuffer->ucFlags |= sbFLAGS_IS_MESSAGE_BUFFER;
 2553              	 .loc 1 1167 0
 2554 005a FB68     	 ldr r3,[r7,#12]
 2555 005c 1B7F     	 ldrb r3,[r3,#28]
 2556 005e 43F00103 	 orr r3,r3,#1
 2557 0062 DAB2     	 uxtb r2,r3
 2558 0064 FB68     	 ldr r3,[r7,#12]
 2559 0066 1A77     	 strb r2,[r3,#28]
 2560              	.L155:
1168:../Dave/Generated/FREERTOS/stream_buffer.c **** 	}
1169:../Dave/Generated/FREERTOS/stream_buffer.c **** }
 2561              	 .loc 1 1169 0
 2562 0068 1837     	 adds r7,r7,#24
 2563              	.LCFI102:
 2564              	 .cfi_def_cfa_offset 8
 2565 006a BD46     	 mov sp,r7
 2566              	.LCFI103:
 2567              	 .cfi_def_cfa_register 13
 2568              	 
 2569 006c 80BD     	 pop {r7,pc}
 2570              	 .cfi_endproc
 2571              	.LFE154:
 2573 006e 00BF     	 .section .text.uxStreamBufferGetStreamBufferNumber,"ax",%progbits
 2574              	 .align 2
 2575              	 .global uxStreamBufferGetStreamBufferNumber
 2576              	 .thumb
 2577              	 .thumb_func
 2579              	uxStreamBufferGetStreamBufferNumber:
 2580              	.LFB155:
1170:../Dave/Generated/FREERTOS/stream_buffer.c **** 
1171:../Dave/Generated/FREERTOS/stream_buffer.c **** #if ( configUSE_TRACE_FACILITY == 1 )
1172:../Dave/Generated/FREERTOS/stream_buffer.c **** 
1173:../Dave/Generated/FREERTOS/stream_buffer.c **** 	UBaseType_t uxStreamBufferGetStreamBufferNumber( StreamBufferHandle_t xStreamBuffer )
1174:../Dave/Generated/FREERTOS/stream_buffer.c **** 	{
 2581              	 .loc 1 1174 0
 2582              	 .cfi_startproc
 2583              	 
 2584              	 
 2585              	 
 2586 0000 80B4     	 push {r7}
 2587              	.LCFI104:
 2588              	 .cfi_def_cfa_offset 4
 2589              	 .cfi_offset 7,-4
 2590 0002 83B0     	 sub sp,sp,#12
 2591              	.LCFI105:
 2592              	 .cfi_def_cfa_offset 16
 2593 0004 00AF     	 add r7,sp,#0
 2594              	.LCFI106:
 2595              	 .cfi_def_cfa_register 7
 2596 0006 7860     	 str r0,[r7,#4]
1175:../Dave/Generated/FREERTOS/stream_buffer.c **** 		return ( ( StreamBuffer_t * ) xStreamBuffer )->uxStreamBufferNumber;
 2597              	 .loc 1 1175 0
 2598 0008 7B68     	 ldr r3,[r7,#4]
 2599 000a 1B6A     	 ldr r3,[r3,#32]
1176:../Dave/Generated/FREERTOS/stream_buffer.c **** 	}
 2600              	 .loc 1 1176 0
 2601 000c 1846     	 mov r0,r3
 2602 000e 0C37     	 adds r7,r7,#12
 2603              	.LCFI107:
 2604              	 .cfi_def_cfa_offset 4
 2605 0010 BD46     	 mov sp,r7
 2606              	.LCFI108:
 2607              	 .cfi_def_cfa_register 13
 2608              	 
 2609 0012 5DF8047B 	 ldr r7,[sp],#4
 2610              	.LCFI109:
 2611              	 .cfi_restore 7
 2612              	 .cfi_def_cfa_offset 0
 2613 0016 7047     	 bx lr
 2614              	 .cfi_endproc
 2615              	.LFE155:
 2617              	 .section .text.vStreamBufferSetStreamBufferNumber,"ax",%progbits
 2618              	 .align 2
 2619              	 .global vStreamBufferSetStreamBufferNumber
 2620              	 .thumb
 2621              	 .thumb_func
 2623              	vStreamBufferSetStreamBufferNumber:
 2624              	.LFB156:
1177:../Dave/Generated/FREERTOS/stream_buffer.c **** 
1178:../Dave/Generated/FREERTOS/stream_buffer.c **** #endif /* configUSE_TRACE_FACILITY */
1179:../Dave/Generated/FREERTOS/stream_buffer.c **** /*-----------------------------------------------------------*/
1180:../Dave/Generated/FREERTOS/stream_buffer.c **** 
1181:../Dave/Generated/FREERTOS/stream_buffer.c **** #if ( configUSE_TRACE_FACILITY == 1 )
1182:../Dave/Generated/FREERTOS/stream_buffer.c **** 
1183:../Dave/Generated/FREERTOS/stream_buffer.c **** 	void vStreamBufferSetStreamBufferNumber( StreamBufferHandle_t xStreamBuffer, UBaseType_t uxStreamB
1184:../Dave/Generated/FREERTOS/stream_buffer.c **** 	{
 2625              	 .loc 1 1184 0
 2626              	 .cfi_startproc
 2627              	 
 2628              	 
 2629              	 
 2630 0000 80B4     	 push {r7}
 2631              	.LCFI110:
 2632              	 .cfi_def_cfa_offset 4
 2633              	 .cfi_offset 7,-4
 2634 0002 83B0     	 sub sp,sp,#12
 2635              	.LCFI111:
 2636              	 .cfi_def_cfa_offset 16
 2637 0004 00AF     	 add r7,sp,#0
 2638              	.LCFI112:
 2639              	 .cfi_def_cfa_register 7
 2640 0006 7860     	 str r0,[r7,#4]
 2641 0008 3960     	 str r1,[r7]
1185:../Dave/Generated/FREERTOS/stream_buffer.c **** 		( ( StreamBuffer_t * ) xStreamBuffer )->uxStreamBufferNumber = uxStreamBufferNumber;
 2642              	 .loc 1 1185 0
 2643 000a 7B68     	 ldr r3,[r7,#4]
 2644 000c 3A68     	 ldr r2,[r7]
 2645 000e 1A62     	 str r2,[r3,#32]
1186:../Dave/Generated/FREERTOS/stream_buffer.c **** 	}
 2646              	 .loc 1 1186 0
 2647 0010 0C37     	 adds r7,r7,#12
 2648              	.LCFI113:
 2649              	 .cfi_def_cfa_offset 4
 2650 0012 BD46     	 mov sp,r7
 2651              	.LCFI114:
 2652              	 .cfi_def_cfa_register 13
 2653              	 
 2654 0014 5DF8047B 	 ldr r7,[sp],#4
 2655              	.LCFI115:
 2656              	 .cfi_restore 7
 2657              	 .cfi_def_cfa_offset 0
 2658 0018 7047     	 bx lr
 2659              	 .cfi_endproc
 2660              	.LFE156:
 2662 001a 00BF     	 .section .text.ucStreamBufferGetStreamBufferType,"ax",%progbits
 2663              	 .align 2
 2664              	 .global ucStreamBufferGetStreamBufferType
 2665              	 .thumb
 2666              	 .thumb_func
 2668              	ucStreamBufferGetStreamBufferType:
 2669              	.LFB157:
1187:../Dave/Generated/FREERTOS/stream_buffer.c **** 
1188:../Dave/Generated/FREERTOS/stream_buffer.c **** #endif /* configUSE_TRACE_FACILITY */
1189:../Dave/Generated/FREERTOS/stream_buffer.c **** /*-----------------------------------------------------------*/
1190:../Dave/Generated/FREERTOS/stream_buffer.c **** 
1191:../Dave/Generated/FREERTOS/stream_buffer.c **** #if ( configUSE_TRACE_FACILITY == 1 )
1192:../Dave/Generated/FREERTOS/stream_buffer.c **** 
1193:../Dave/Generated/FREERTOS/stream_buffer.c **** 	uint8_t ucStreamBufferGetStreamBufferType( StreamBufferHandle_t xStreamBuffer )
1194:../Dave/Generated/FREERTOS/stream_buffer.c **** 	{
 2670              	 .loc 1 1194 0
 2671              	 .cfi_startproc
 2672              	 
 2673              	 
 2674              	 
 2675 0000 80B4     	 push {r7}
 2676              	.LCFI116:
 2677              	 .cfi_def_cfa_offset 4
 2678              	 .cfi_offset 7,-4
 2679 0002 83B0     	 sub sp,sp,#12
 2680              	.LCFI117:
 2681              	 .cfi_def_cfa_offset 16
 2682 0004 00AF     	 add r7,sp,#0
 2683              	.LCFI118:
 2684              	 .cfi_def_cfa_register 7
 2685 0006 7860     	 str r0,[r7,#4]
1195:../Dave/Generated/FREERTOS/stream_buffer.c **** 		return ( ( StreamBuffer_t * )xStreamBuffer )->ucFlags | sbFLAGS_IS_MESSAGE_BUFFER;
 2686              	 .loc 1 1195 0
 2687 0008 7B68     	 ldr r3,[r7,#4]
 2688 000a 1B7F     	 ldrb r3,[r3,#28]
 2689 000c 43F00103 	 orr r3,r3,#1
 2690 0010 DBB2     	 uxtb r3,r3
1196:../Dave/Generated/FREERTOS/stream_buffer.c **** 	}
 2691              	 .loc 1 1196 0
 2692 0012 1846     	 mov r0,r3
 2693 0014 0C37     	 adds r7,r7,#12
 2694              	.LCFI119:
 2695              	 .cfi_def_cfa_offset 4
 2696 0016 BD46     	 mov sp,r7
 2697              	.LCFI120:
 2698              	 .cfi_def_cfa_register 13
 2699              	 
 2700 0018 5DF8047B 	 ldr r7,[sp],#4
 2701              	.LCFI121:
 2702              	 .cfi_restore 7
 2703              	 .cfi_def_cfa_offset 0
 2704 001c 7047     	 bx lr
 2705              	 .cfi_endproc
 2706              	.LFE157:
 2708 001e 00BF     	 .text
 2709              	.Letext0:
 2710              	 .file 3 "c:\\kits\\dave\\dave-ide-4.4.2-64bit\\eclipse\\arm-gcc-49\\arm-none-eabi\\include\\machine\\_default_types.h"
 2711              	 .file 4 "c:\\kits\\dave\\dave-ide-4.4.2-64bit\\eclipse\\arm-gcc-49\\arm-none-eabi\\include\\stdint.h"
 2712              	 .file 5 "c:\\kits\\dave\\dave-ide-4.4.2-64bit\\eclipse\\arm-gcc-49\\lib\\gcc\\arm-none-eabi\\4.9.3\\include\\stddef.h"
 2713              	 .file 6 "../Dave/Generated/FREERTOS/task.h"
 2714              	 .file 7 "../Dave/Generated/FREERTOS/stream_buffer.h"
 2715              	 .file 8 "C:/Workspaces/DAVE-4.4.2-64Bit/FreeRtos_Led/Libraries/CMSIS/Include/core_cm4.h"