   1              	 .syntax unified
   2              	 .cpu cortex-m4
   3              	 .eabi_attribute 27,3
   4              	 .fpu fpv4-sp-d16
   5              	 .eabi_attribute 20,1
   6              	 .eabi_attribute 21,1
   7              	 .eabi_attribute 23,3
   8              	 .eabi_attribute 24,1
   9              	 .eabi_attribute 25,1
  10              	 .eabi_attribute 26,1
  11              	 .eabi_attribute 30,6
  12              	 .eabi_attribute 34,1
  13              	 .eabi_attribute 18,4
  14              	 .thumb
  15              	 .file "tasks.c"
  16              	 .text
  17              	.Ltext0:
  18              	 .cfi_sections .debug_frame
  19              	 .global pxCurrentTCB
  20              	 .section .bss.pxCurrentTCB,"aw",%nobits
  21              	 .align 2
  24              	pxCurrentTCB:
  25 0000 00000000 	 .space 4
  26              	 .section .bss.pxReadyTasksLists,"aw",%nobits
  27              	 .align 2
  30              	pxReadyTasksLists:
  31 0000 00000000 	 .space 100
  31      00000000 
  31      00000000 
  31      00000000 
  31      00000000 
  32              	 .section .bss.xDelayedTaskList1,"aw",%nobits
  33              	 .align 2
  36              	xDelayedTaskList1:
  37 0000 00000000 	 .space 20
  37      00000000 
  37      00000000 
  37      00000000 
  37      00000000 
  38              	 .section .bss.xDelayedTaskList2,"aw",%nobits
  39              	 .align 2
  42              	xDelayedTaskList2:
  43 0000 00000000 	 .space 20
  43      00000000 
  43      00000000 
  43      00000000 
  43      00000000 
  44              	 .section .bss.pxDelayedTaskList,"aw",%nobits
  45              	 .align 2
  48              	pxDelayedTaskList:
  49 0000 00000000 	 .space 4
  50              	 .section .bss.pxOverflowDelayedTaskList,"aw",%nobits
  51              	 .align 2
  54              	pxOverflowDelayedTaskList:
  55 0000 00000000 	 .space 4
  56              	 .section .bss.xPendingReadyList,"aw",%nobits
  57              	 .align 2
  60              	xPendingReadyList:
  61 0000 00000000 	 .space 20
  61      00000000 
  61      00000000 
  61      00000000 
  61      00000000 
  62              	 .section .bss.xTasksWaitingTermination,"aw",%nobits
  63              	 .align 2
  66              	xTasksWaitingTermination:
  67 0000 00000000 	 .space 20
  67      00000000 
  67      00000000 
  67      00000000 
  67      00000000 
  68              	 .section .bss.uxDeletedTasksWaitingCleanUp,"aw",%nobits
  69              	 .align 2
  72              	uxDeletedTasksWaitingCleanUp:
  73 0000 00000000 	 .space 4
  74              	 .section .bss.xSuspendedTaskList,"aw",%nobits
  75              	 .align 2
  78              	xSuspendedTaskList:
  79 0000 00000000 	 .space 20
  79      00000000 
  79      00000000 
  79      00000000 
  79      00000000 
  80              	 .section .bss.uxCurrentNumberOfTasks,"aw",%nobits
  81              	 .align 2
  84              	uxCurrentNumberOfTasks:
  85 0000 00000000 	 .space 4
  86              	 .section .bss.xTickCount,"aw",%nobits
  87              	 .align 2
  90              	xTickCount:
  91 0000 00000000 	 .space 4
  92              	 .section .bss.uxTopReadyPriority,"aw",%nobits
  93              	 .align 2
  96              	uxTopReadyPriority:
  97 0000 00000000 	 .space 4
  98              	 .section .bss.xSchedulerRunning,"aw",%nobits
  99              	 .align 2
 102              	xSchedulerRunning:
 103 0000 00000000 	 .space 4
 104              	 .section .bss.uxPendedTicks,"aw",%nobits
 105              	 .align 2
 108              	uxPendedTicks:
 109 0000 00000000 	 .space 4
 110              	 .section .bss.xYieldPending,"aw",%nobits
 111              	 .align 2
 114              	xYieldPending:
 115 0000 00000000 	 .space 4
 116              	 .section .bss.xNumOfOverflows,"aw",%nobits
 117              	 .align 2
 120              	xNumOfOverflows:
 121 0000 00000000 	 .space 4
 122              	 .section .bss.uxTaskNumber,"aw",%nobits
 123              	 .align 2
 126              	uxTaskNumber:
 127 0000 00000000 	 .space 4
 128              	 .section .bss.xNextTaskUnblockTime,"aw",%nobits
 129              	 .align 2
 132              	xNextTaskUnblockTime:
 133 0000 00000000 	 .space 4
 134              	 .section .bss.xIdleTaskHandle,"aw",%nobits
 135              	 .align 2
 138              	xIdleTaskHandle:
 139 0000 00000000 	 .space 4
 140              	 .section .bss.uxSchedulerSuspended,"aw",%nobits
 141              	 .align 2
 144              	uxSchedulerSuspended:
 145 0000 00000000 	 .space 4
 146              	 .section .text.xTaskCreate,"ax",%progbits
 147              	 .align 2
 148              	 .global xTaskCreate
 149              	 .thumb
 150              	 .thumb_func
 152              	xTaskCreate:
 153              	.LFB135:
 154              	 .file 1 "../Dave/Generated/FREERTOS/tasks.c"
   1:../Dave/Generated/FREERTOS/tasks.c **** /*
   2:../Dave/Generated/FREERTOS/tasks.c ****  * FreeRTOS Kernel V10.0.1
   3:../Dave/Generated/FREERTOS/tasks.c ****  * Copyright (C) 2017 Amazon.com, Inc. or its affiliates.  All Rights Reserved.
   4:../Dave/Generated/FREERTOS/tasks.c ****  *
   5:../Dave/Generated/FREERTOS/tasks.c ****  * Permission is hereby granted, free of charge, to any person obtaining a copy of
   6:../Dave/Generated/FREERTOS/tasks.c ****  * this software and associated documentation files (the "Software"), to deal in
   7:../Dave/Generated/FREERTOS/tasks.c ****  * the Software without restriction, including without limitation the rights to
   8:../Dave/Generated/FREERTOS/tasks.c ****  * use, copy, modify, merge, publish, distribute, sublicense, and/or sell copies of
   9:../Dave/Generated/FREERTOS/tasks.c ****  * the Software, and to permit persons to whom the Software is furnished to do so,
  10:../Dave/Generated/FREERTOS/tasks.c ****  * subject to the following conditions:
  11:../Dave/Generated/FREERTOS/tasks.c ****  *
  12:../Dave/Generated/FREERTOS/tasks.c ****  * The above copyright notice and this permission notice shall be included in all
  13:../Dave/Generated/FREERTOS/tasks.c ****  * copies or substantial portions of the Software.
  14:../Dave/Generated/FREERTOS/tasks.c ****  *
  15:../Dave/Generated/FREERTOS/tasks.c ****  * THE SOFTWARE IS PROVIDED "AS IS", WITHOUT WARRANTY OF ANY KIND, EXPRESS OR
  16:../Dave/Generated/FREERTOS/tasks.c ****  * IMPLIED, INCLUDING BUT NOT LIMITED TO THE WARRANTIES OF MERCHANTABILITY, FITNESS
  17:../Dave/Generated/FREERTOS/tasks.c ****  * FOR A PARTICULAR PURPOSE AND NONINFRINGEMENT. IN NO EVENT SHALL THE AUTHORS OR
  18:../Dave/Generated/FREERTOS/tasks.c ****  * COPYRIGHT HOLDERS BE LIABLE FOR ANY CLAIM, DAMAGES OR OTHER LIABILITY, WHETHER
  19:../Dave/Generated/FREERTOS/tasks.c ****  * IN AN ACTION OF CONTRACT, TORT OR OTHERWISE, ARISING FROM, OUT OF OR IN
  20:../Dave/Generated/FREERTOS/tasks.c ****  * CONNECTION WITH THE SOFTWARE OR THE USE OR OTHER DEALINGS IN THE SOFTWARE.
  21:../Dave/Generated/FREERTOS/tasks.c ****  *
  22:../Dave/Generated/FREERTOS/tasks.c ****  * http://www.FreeRTOS.org
  23:../Dave/Generated/FREERTOS/tasks.c ****  * http://aws.amazon.com/freertos
  24:../Dave/Generated/FREERTOS/tasks.c ****  *
  25:../Dave/Generated/FREERTOS/tasks.c ****  * 1 tab == 4 spaces!
  26:../Dave/Generated/FREERTOS/tasks.c ****  */
  27:../Dave/Generated/FREERTOS/tasks.c **** 
  28:../Dave/Generated/FREERTOS/tasks.c **** /* Standard includes. */
  29:../Dave/Generated/FREERTOS/tasks.c **** #include <stdlib.h>
  30:../Dave/Generated/FREERTOS/tasks.c **** #include <string.h>
  31:../Dave/Generated/FREERTOS/tasks.c **** 
  32:../Dave/Generated/FREERTOS/tasks.c **** /* Defining MPU_WRAPPERS_INCLUDED_FROM_API_FILE prevents task.h from redefining
  33:../Dave/Generated/FREERTOS/tasks.c **** all the API functions to use the MPU wrappers.  That should only be done when
  34:../Dave/Generated/FREERTOS/tasks.c **** task.h is included from an application file. */
  35:../Dave/Generated/FREERTOS/tasks.c **** #define MPU_WRAPPERS_INCLUDED_FROM_API_FILE
  36:../Dave/Generated/FREERTOS/tasks.c **** 
  37:../Dave/Generated/FREERTOS/tasks.c **** /* FreeRTOS includes. */
  38:../Dave/Generated/FREERTOS/tasks.c **** #include "FreeRTOS.h"
  39:../Dave/Generated/FREERTOS/tasks.c **** #include "task.h"
  40:../Dave/Generated/FREERTOS/tasks.c **** #include "timers.h"
  41:../Dave/Generated/FREERTOS/tasks.c **** #include "stack_macros.h"
  42:../Dave/Generated/FREERTOS/tasks.c **** 
  43:../Dave/Generated/FREERTOS/tasks.c **** /* Lint e961 and e750 are suppressed as a MISRA exception justified because the
  44:../Dave/Generated/FREERTOS/tasks.c **** MPU ports require MPU_WRAPPERS_INCLUDED_FROM_API_FILE to be defined for the
  45:../Dave/Generated/FREERTOS/tasks.c **** header files above, but not in this file, in order to generate the correct
  46:../Dave/Generated/FREERTOS/tasks.c **** privileged Vs unprivileged linkage and placement. */
  47:../Dave/Generated/FREERTOS/tasks.c **** #undef MPU_WRAPPERS_INCLUDED_FROM_API_FILE /*lint !e961 !e750. */
  48:../Dave/Generated/FREERTOS/tasks.c **** 
  49:../Dave/Generated/FREERTOS/tasks.c **** /* Set configUSE_STATS_FORMATTING_FUNCTIONS to 2 to include the stats formatting
  50:../Dave/Generated/FREERTOS/tasks.c **** functions but without including stdio.h here. */
  51:../Dave/Generated/FREERTOS/tasks.c **** #if ( configUSE_STATS_FORMATTING_FUNCTIONS == 1 )
  52:../Dave/Generated/FREERTOS/tasks.c **** 	/* At the bottom of this file are two optional functions that can be used
  53:../Dave/Generated/FREERTOS/tasks.c **** 	to generate human readable text from the raw data generated by the
  54:../Dave/Generated/FREERTOS/tasks.c **** 	uxTaskGetSystemState() function.  Note the formatting functions are provided
  55:../Dave/Generated/FREERTOS/tasks.c **** 	for convenience only, and are NOT considered part of the kernel. */
  56:../Dave/Generated/FREERTOS/tasks.c **** 	#include <stdio.h>
  57:../Dave/Generated/FREERTOS/tasks.c **** #endif /* configUSE_STATS_FORMATTING_FUNCTIONS == 1 ) */
  58:../Dave/Generated/FREERTOS/tasks.c **** 
  59:../Dave/Generated/FREERTOS/tasks.c **** #if( configUSE_PREEMPTION == 0 )
  60:../Dave/Generated/FREERTOS/tasks.c **** 	/* If the cooperative scheduler is being used then a yield should not be
  61:../Dave/Generated/FREERTOS/tasks.c **** 	performed just because a higher priority task has been woken. */
  62:../Dave/Generated/FREERTOS/tasks.c **** 	#define taskYIELD_IF_USING_PREEMPTION()
  63:../Dave/Generated/FREERTOS/tasks.c **** #else
  64:../Dave/Generated/FREERTOS/tasks.c **** 	#define taskYIELD_IF_USING_PREEMPTION() portYIELD_WITHIN_API()
  65:../Dave/Generated/FREERTOS/tasks.c **** #endif
  66:../Dave/Generated/FREERTOS/tasks.c **** 
  67:../Dave/Generated/FREERTOS/tasks.c **** /* Values that can be assigned to the ucNotifyState member of the TCB. */
  68:../Dave/Generated/FREERTOS/tasks.c **** #define taskNOT_WAITING_NOTIFICATION	( ( uint8_t ) 0 )
  69:../Dave/Generated/FREERTOS/tasks.c **** #define taskWAITING_NOTIFICATION		( ( uint8_t ) 1 )
  70:../Dave/Generated/FREERTOS/tasks.c **** #define taskNOTIFICATION_RECEIVED		( ( uint8_t ) 2 )
  71:../Dave/Generated/FREERTOS/tasks.c **** 
  72:../Dave/Generated/FREERTOS/tasks.c **** /*
  73:../Dave/Generated/FREERTOS/tasks.c ****  * The value used to fill the stack of a task when the task is created.  This
  74:../Dave/Generated/FREERTOS/tasks.c ****  * is used purely for checking the high water mark for tasks.
  75:../Dave/Generated/FREERTOS/tasks.c ****  */
  76:../Dave/Generated/FREERTOS/tasks.c **** #define tskSTACK_FILL_BYTE	( 0xa5U )
  77:../Dave/Generated/FREERTOS/tasks.c **** 
  78:../Dave/Generated/FREERTOS/tasks.c **** /* Sometimes the FreeRTOSConfig.h settings only allow a task to be created using
  79:../Dave/Generated/FREERTOS/tasks.c **** dynamically allocated RAM, in which case when any task is deleted it is known
  80:../Dave/Generated/FREERTOS/tasks.c **** that both the task's stack and TCB need to be freed.  Sometimes the
  81:../Dave/Generated/FREERTOS/tasks.c **** FreeRTOSConfig.h settings only allow a task to be created using statically
  82:../Dave/Generated/FREERTOS/tasks.c **** allocated RAM, in which case when any task is deleted it is known that neither
  83:../Dave/Generated/FREERTOS/tasks.c **** the task's stack or TCB should be freed.  Sometimes the FreeRTOSConfig.h
  84:../Dave/Generated/FREERTOS/tasks.c **** settings allow a task to be created using either statically or dynamically
  85:../Dave/Generated/FREERTOS/tasks.c **** allocated RAM, in which case a member of the TCB is used to record whether the
  86:../Dave/Generated/FREERTOS/tasks.c **** stack and/or TCB were allocated statically or dynamically, so when a task is
  87:../Dave/Generated/FREERTOS/tasks.c **** deleted the RAM that was allocated dynamically is freed again and no attempt is
  88:../Dave/Generated/FREERTOS/tasks.c **** made to free the RAM that was allocated statically.
  89:../Dave/Generated/FREERTOS/tasks.c **** tskSTATIC_AND_DYNAMIC_ALLOCATION_POSSIBLE is only true if it is possible for a
  90:../Dave/Generated/FREERTOS/tasks.c **** task to be created using either statically or dynamically allocated RAM.  Note
  91:../Dave/Generated/FREERTOS/tasks.c **** that if portUSING_MPU_WRAPPERS is 1 then a protected task can be created with
  92:../Dave/Generated/FREERTOS/tasks.c **** a statically allocated stack and a dynamically allocated TCB.
  93:../Dave/Generated/FREERTOS/tasks.c **** !!!NOTE!!! If the definition of tskSTATIC_AND_DYNAMIC_ALLOCATION_POSSIBLE is
  94:../Dave/Generated/FREERTOS/tasks.c **** changed then the definition of StaticTask_t must also be updated. */
  95:../Dave/Generated/FREERTOS/tasks.c **** #define tskSTATIC_AND_DYNAMIC_ALLOCATION_POSSIBLE	( ( configSUPPORT_STATIC_ALLOCATION == 1 ) && ( c
  96:../Dave/Generated/FREERTOS/tasks.c **** #define tskDYNAMICALLY_ALLOCATED_STACK_AND_TCB 		( ( uint8_t ) 0 )
  97:../Dave/Generated/FREERTOS/tasks.c **** #define tskSTATICALLY_ALLOCATED_STACK_ONLY 			( ( uint8_t ) 1 )
  98:../Dave/Generated/FREERTOS/tasks.c **** #define tskSTATICALLY_ALLOCATED_STACK_AND_TCB		( ( uint8_t ) 2 )
  99:../Dave/Generated/FREERTOS/tasks.c **** 
 100:../Dave/Generated/FREERTOS/tasks.c **** /* If any of the following are set then task stacks are filled with a known
 101:../Dave/Generated/FREERTOS/tasks.c **** value so the high water mark can be determined.  If none of the following are
 102:../Dave/Generated/FREERTOS/tasks.c **** set then don't fill the stack so there is no unnecessary dependency on memset. */
 103:../Dave/Generated/FREERTOS/tasks.c **** #if( ( configCHECK_FOR_STACK_OVERFLOW > 1 ) || ( configUSE_TRACE_FACILITY == 1 ) || ( INCLUDE_uxTas
 104:../Dave/Generated/FREERTOS/tasks.c **** 	#define tskSET_NEW_STACKS_TO_KNOWN_VALUE	1
 105:../Dave/Generated/FREERTOS/tasks.c **** #else
 106:../Dave/Generated/FREERTOS/tasks.c **** 	#define tskSET_NEW_STACKS_TO_KNOWN_VALUE	0
 107:../Dave/Generated/FREERTOS/tasks.c **** #endif
 108:../Dave/Generated/FREERTOS/tasks.c **** 
 109:../Dave/Generated/FREERTOS/tasks.c **** /*
 110:../Dave/Generated/FREERTOS/tasks.c ****  * Macros used by vListTask to indicate which state a task is in.
 111:../Dave/Generated/FREERTOS/tasks.c ****  */
 112:../Dave/Generated/FREERTOS/tasks.c **** #define tskRUNNING_CHAR		( 'X' )
 113:../Dave/Generated/FREERTOS/tasks.c **** #define tskBLOCKED_CHAR		( 'B' )
 114:../Dave/Generated/FREERTOS/tasks.c **** #define tskREADY_CHAR		( 'R' )
 115:../Dave/Generated/FREERTOS/tasks.c **** #define tskDELETED_CHAR		( 'D' )
 116:../Dave/Generated/FREERTOS/tasks.c **** #define tskSUSPENDED_CHAR	( 'S' )
 117:../Dave/Generated/FREERTOS/tasks.c **** 
 118:../Dave/Generated/FREERTOS/tasks.c **** /*
 119:../Dave/Generated/FREERTOS/tasks.c ****  * Some kernel aware debuggers require the data the debugger needs access to be
 120:../Dave/Generated/FREERTOS/tasks.c ****  * global, rather than file scope.
 121:../Dave/Generated/FREERTOS/tasks.c ****  */
 122:../Dave/Generated/FREERTOS/tasks.c **** #ifdef portREMOVE_STATIC_QUALIFIER
 123:../Dave/Generated/FREERTOS/tasks.c **** 	#define static
 124:../Dave/Generated/FREERTOS/tasks.c **** #endif
 125:../Dave/Generated/FREERTOS/tasks.c **** 
 126:../Dave/Generated/FREERTOS/tasks.c **** /* The name allocated to the Idle task.  This can be overridden by defining
 127:../Dave/Generated/FREERTOS/tasks.c **** configIDLE_TASK_NAME in FreeRTOSConfig.h. */
 128:../Dave/Generated/FREERTOS/tasks.c **** #ifndef configIDLE_TASK_NAME
 129:../Dave/Generated/FREERTOS/tasks.c **** 	#define configIDLE_TASK_NAME "IDLE"
 130:../Dave/Generated/FREERTOS/tasks.c **** #endif
 131:../Dave/Generated/FREERTOS/tasks.c **** 
 132:../Dave/Generated/FREERTOS/tasks.c **** #if ( configUSE_PORT_OPTIMISED_TASK_SELECTION == 0 )
 133:../Dave/Generated/FREERTOS/tasks.c **** 
 134:../Dave/Generated/FREERTOS/tasks.c **** 	/* If configUSE_PORT_OPTIMISED_TASK_SELECTION is 0 then task selection is
 135:../Dave/Generated/FREERTOS/tasks.c **** 	performed in a generic way that is not optimised to any particular
 136:../Dave/Generated/FREERTOS/tasks.c **** 	microcontroller architecture. */
 137:../Dave/Generated/FREERTOS/tasks.c **** 
 138:../Dave/Generated/FREERTOS/tasks.c **** 	/* uxTopReadyPriority holds the priority of the highest priority ready
 139:../Dave/Generated/FREERTOS/tasks.c **** 	state task. */
 140:../Dave/Generated/FREERTOS/tasks.c **** 	#define taskRECORD_READY_PRIORITY( uxPriority )														\
 141:../Dave/Generated/FREERTOS/tasks.c **** 	{																									\
 142:../Dave/Generated/FREERTOS/tasks.c **** 		if( ( uxPriority ) > uxTopReadyPriority )														\
 143:../Dave/Generated/FREERTOS/tasks.c **** 		{																								\
 144:../Dave/Generated/FREERTOS/tasks.c **** 			uxTopReadyPriority = ( uxPriority );														\
 145:../Dave/Generated/FREERTOS/tasks.c **** 		}																								\
 146:../Dave/Generated/FREERTOS/tasks.c **** 	} /* taskRECORD_READY_PRIORITY */
 147:../Dave/Generated/FREERTOS/tasks.c **** 
 148:../Dave/Generated/FREERTOS/tasks.c **** 	/*-----------------------------------------------------------*/
 149:../Dave/Generated/FREERTOS/tasks.c **** 
 150:../Dave/Generated/FREERTOS/tasks.c **** 	#define taskSELECT_HIGHEST_PRIORITY_TASK()															\
 151:../Dave/Generated/FREERTOS/tasks.c **** 	{																									\
 152:../Dave/Generated/FREERTOS/tasks.c **** 	UBaseType_t uxTopPriority = uxTopReadyPriority;														\
 153:../Dave/Generated/FREERTOS/tasks.c **** 																										\
 154:../Dave/Generated/FREERTOS/tasks.c **** 		/* Find the highest priority queue that contains ready tasks. */								\
 155:../Dave/Generated/FREERTOS/tasks.c **** 		while( listLIST_IS_EMPTY( &( pxReadyTasksLists[ uxTopPriority ] ) ) )							\
 156:../Dave/Generated/FREERTOS/tasks.c **** 		{																								\
 157:../Dave/Generated/FREERTOS/tasks.c **** 			configASSERT( uxTopPriority );																\
 158:../Dave/Generated/FREERTOS/tasks.c **** 			--uxTopPriority;																			\
 159:../Dave/Generated/FREERTOS/tasks.c **** 		}																								\
 160:../Dave/Generated/FREERTOS/tasks.c **** 																										\
 161:../Dave/Generated/FREERTOS/tasks.c **** 		/* listGET_OWNER_OF_NEXT_ENTRY indexes through the list, so the tasks of						\
 162:../Dave/Generated/FREERTOS/tasks.c **** 		the	same priority get an equal share of the processor time. */									\
 163:../Dave/Generated/FREERTOS/tasks.c **** 		listGET_OWNER_OF_NEXT_ENTRY( pxCurrentTCB, &( pxReadyTasksLists[ uxTopPriority ] ) );			\
 164:../Dave/Generated/FREERTOS/tasks.c **** 		uxTopReadyPriority = uxTopPriority;																\
 165:../Dave/Generated/FREERTOS/tasks.c **** 	} /* taskSELECT_HIGHEST_PRIORITY_TASK */
 166:../Dave/Generated/FREERTOS/tasks.c **** 
 167:../Dave/Generated/FREERTOS/tasks.c **** 	/*-----------------------------------------------------------*/
 168:../Dave/Generated/FREERTOS/tasks.c **** 
 169:../Dave/Generated/FREERTOS/tasks.c **** 	/* Define away taskRESET_READY_PRIORITY() and portRESET_READY_PRIORITY() as
 170:../Dave/Generated/FREERTOS/tasks.c **** 	they are only required when a port optimised method of task selection is
 171:../Dave/Generated/FREERTOS/tasks.c **** 	being used. */
 172:../Dave/Generated/FREERTOS/tasks.c **** 	#define taskRESET_READY_PRIORITY( uxPriority )
 173:../Dave/Generated/FREERTOS/tasks.c **** 	#define portRESET_READY_PRIORITY( uxPriority, uxTopReadyPriority )
 174:../Dave/Generated/FREERTOS/tasks.c **** 
 175:../Dave/Generated/FREERTOS/tasks.c **** #else /* configUSE_PORT_OPTIMISED_TASK_SELECTION */
 176:../Dave/Generated/FREERTOS/tasks.c **** 
 177:../Dave/Generated/FREERTOS/tasks.c **** 	/* If configUSE_PORT_OPTIMISED_TASK_SELECTION is 1 then task selection is
 178:../Dave/Generated/FREERTOS/tasks.c **** 	performed in a way that is tailored to the particular microcontroller
 179:../Dave/Generated/FREERTOS/tasks.c **** 	architecture being used. */
 180:../Dave/Generated/FREERTOS/tasks.c **** 
 181:../Dave/Generated/FREERTOS/tasks.c **** 	/* A port optimised version is provided.  Call the port defined macros. */
 182:../Dave/Generated/FREERTOS/tasks.c **** 	#define taskRECORD_READY_PRIORITY( uxPriority )	portRECORD_READY_PRIORITY( uxPriority, uxTopReadyP
 183:../Dave/Generated/FREERTOS/tasks.c **** 
 184:../Dave/Generated/FREERTOS/tasks.c **** 	/*-----------------------------------------------------------*/
 185:../Dave/Generated/FREERTOS/tasks.c **** 
 186:../Dave/Generated/FREERTOS/tasks.c **** 	#define taskSELECT_HIGHEST_PRIORITY_TASK()														\
 187:../Dave/Generated/FREERTOS/tasks.c **** 	{																								\
 188:../Dave/Generated/FREERTOS/tasks.c **** 	UBaseType_t uxTopPriority;																		\
 189:../Dave/Generated/FREERTOS/tasks.c **** 																									\
 190:../Dave/Generated/FREERTOS/tasks.c **** 		/* Find the highest priority list that contains ready tasks. */								\
 191:../Dave/Generated/FREERTOS/tasks.c **** 		portGET_HIGHEST_PRIORITY( uxTopPriority, uxTopReadyPriority );								\
 192:../Dave/Generated/FREERTOS/tasks.c **** 		configASSERT( listCURRENT_LIST_LENGTH( &( pxReadyTasksLists[ uxTopPriority ] ) ) > 0 );		\
 193:../Dave/Generated/FREERTOS/tasks.c **** 		listGET_OWNER_OF_NEXT_ENTRY( pxCurrentTCB, &( pxReadyTasksLists[ uxTopPriority ] ) );		\
 194:../Dave/Generated/FREERTOS/tasks.c **** 	} /* taskSELECT_HIGHEST_PRIORITY_TASK() */
 195:../Dave/Generated/FREERTOS/tasks.c **** 
 196:../Dave/Generated/FREERTOS/tasks.c **** 	/*-----------------------------------------------------------*/
 197:../Dave/Generated/FREERTOS/tasks.c **** 
 198:../Dave/Generated/FREERTOS/tasks.c **** 	/* A port optimised version is provided, call it only if the TCB being reset
 199:../Dave/Generated/FREERTOS/tasks.c **** 	is being referenced from a ready list.  If it is referenced from a delayed
 200:../Dave/Generated/FREERTOS/tasks.c **** 	or suspended list then it won't be in a ready list. */
 201:../Dave/Generated/FREERTOS/tasks.c **** 	#define taskRESET_READY_PRIORITY( uxPriority )														\
 202:../Dave/Generated/FREERTOS/tasks.c **** 	{																									\
 203:../Dave/Generated/FREERTOS/tasks.c **** 		if( listCURRENT_LIST_LENGTH( &( pxReadyTasksLists[ ( uxPriority ) ] ) ) == ( UBaseType_t ) 0 )	\
 204:../Dave/Generated/FREERTOS/tasks.c **** 		{																								\
 205:../Dave/Generated/FREERTOS/tasks.c **** 			portRESET_READY_PRIORITY( ( uxPriority ), ( uxTopReadyPriority ) );							\
 206:../Dave/Generated/FREERTOS/tasks.c **** 		}																								\
 207:../Dave/Generated/FREERTOS/tasks.c **** 	}
 208:../Dave/Generated/FREERTOS/tasks.c **** 
 209:../Dave/Generated/FREERTOS/tasks.c **** #endif /* configUSE_PORT_OPTIMISED_TASK_SELECTION */
 210:../Dave/Generated/FREERTOS/tasks.c **** 
 211:../Dave/Generated/FREERTOS/tasks.c **** /*-----------------------------------------------------------*/
 212:../Dave/Generated/FREERTOS/tasks.c **** 
 213:../Dave/Generated/FREERTOS/tasks.c **** /* pxDelayedTaskList and pxOverflowDelayedTaskList are switched when the tick
 214:../Dave/Generated/FREERTOS/tasks.c **** count overflows. */
 215:../Dave/Generated/FREERTOS/tasks.c **** #define taskSWITCH_DELAYED_LISTS()																	\
 216:../Dave/Generated/FREERTOS/tasks.c **** {																									\
 217:../Dave/Generated/FREERTOS/tasks.c **** 	List_t *pxTemp;																					\
 218:../Dave/Generated/FREERTOS/tasks.c **** 																									\
 219:../Dave/Generated/FREERTOS/tasks.c **** 	/* The delayed tasks list should be empty when the lists are switched. */						\
 220:../Dave/Generated/FREERTOS/tasks.c **** 	configASSERT( ( listLIST_IS_EMPTY( pxDelayedTaskList ) ) );										\
 221:../Dave/Generated/FREERTOS/tasks.c **** 																									\
 222:../Dave/Generated/FREERTOS/tasks.c **** 	pxTemp = pxDelayedTaskList;																		\
 223:../Dave/Generated/FREERTOS/tasks.c **** 	pxDelayedTaskList = pxOverflowDelayedTaskList;													\
 224:../Dave/Generated/FREERTOS/tasks.c **** 	pxOverflowDelayedTaskList = pxTemp;																\
 225:../Dave/Generated/FREERTOS/tasks.c **** 	xNumOfOverflows++;																				\
 226:../Dave/Generated/FREERTOS/tasks.c **** 	prvResetNextTaskUnblockTime();																	\
 227:../Dave/Generated/FREERTOS/tasks.c **** }
 228:../Dave/Generated/FREERTOS/tasks.c **** 
 229:../Dave/Generated/FREERTOS/tasks.c **** /*-----------------------------------------------------------*/
 230:../Dave/Generated/FREERTOS/tasks.c **** 
 231:../Dave/Generated/FREERTOS/tasks.c **** /*
 232:../Dave/Generated/FREERTOS/tasks.c ****  * Place the task represented by pxTCB into the appropriate ready list for
 233:../Dave/Generated/FREERTOS/tasks.c ****  * the task.  It is inserted at the end of the list.
 234:../Dave/Generated/FREERTOS/tasks.c ****  */
 235:../Dave/Generated/FREERTOS/tasks.c **** #define prvAddTaskToReadyList( pxTCB )																\
 236:../Dave/Generated/FREERTOS/tasks.c **** 	traceMOVED_TASK_TO_READY_STATE( pxTCB );														\
 237:../Dave/Generated/FREERTOS/tasks.c **** 	taskRECORD_READY_PRIORITY( ( pxTCB )->uxPriority );												\
 238:../Dave/Generated/FREERTOS/tasks.c **** 	vListInsertEnd( &( pxReadyTasksLists[ ( pxTCB )->uxPriority ] ), &( ( pxTCB )->xStateListItem ) );
 239:../Dave/Generated/FREERTOS/tasks.c **** 	tracePOST_MOVED_TASK_TO_READY_STATE( pxTCB )
 240:../Dave/Generated/FREERTOS/tasks.c **** /*-----------------------------------------------------------*/
 241:../Dave/Generated/FREERTOS/tasks.c **** 
 242:../Dave/Generated/FREERTOS/tasks.c **** /*
 243:../Dave/Generated/FREERTOS/tasks.c ****  * Several functions take an TaskHandle_t parameter that can optionally be NULL,
 244:../Dave/Generated/FREERTOS/tasks.c ****  * where NULL is used to indicate that the handle of the currently executing
 245:../Dave/Generated/FREERTOS/tasks.c ****  * task should be used in place of the parameter.  This macro simply checks to
 246:../Dave/Generated/FREERTOS/tasks.c ****  * see if the parameter is NULL and returns a pointer to the appropriate TCB.
 247:../Dave/Generated/FREERTOS/tasks.c ****  */
 248:../Dave/Generated/FREERTOS/tasks.c **** #define prvGetTCBFromHandle( pxHandle ) ( ( ( pxHandle ) == NULL ) ? ( TCB_t * ) pxCurrentTCB : ( T
 249:../Dave/Generated/FREERTOS/tasks.c **** 
 250:../Dave/Generated/FREERTOS/tasks.c **** /* The item value of the event list item is normally used to hold the priority
 251:../Dave/Generated/FREERTOS/tasks.c **** of the task to which it belongs (coded to allow it to be held in reverse
 252:../Dave/Generated/FREERTOS/tasks.c **** priority order).  However, it is occasionally borrowed for other purposes.  It
 253:../Dave/Generated/FREERTOS/tasks.c **** is important its value is not updated due to a task priority change while it is
 254:../Dave/Generated/FREERTOS/tasks.c **** being used for another purpose.  The following bit definition is used to inform
 255:../Dave/Generated/FREERTOS/tasks.c **** the scheduler that the value should not be changed - in which case it is the
 256:../Dave/Generated/FREERTOS/tasks.c **** responsibility of whichever module is using the value to ensure it gets set back
 257:../Dave/Generated/FREERTOS/tasks.c **** to its original value when it is released. */
 258:../Dave/Generated/FREERTOS/tasks.c **** #if( configUSE_16_BIT_TICKS == 1 )
 259:../Dave/Generated/FREERTOS/tasks.c **** 	#define taskEVENT_LIST_ITEM_VALUE_IN_USE	0x8000U
 260:../Dave/Generated/FREERTOS/tasks.c **** #else
 261:../Dave/Generated/FREERTOS/tasks.c **** 	#define taskEVENT_LIST_ITEM_VALUE_IN_USE	0x80000000UL
 262:../Dave/Generated/FREERTOS/tasks.c **** #endif
 263:../Dave/Generated/FREERTOS/tasks.c **** 
 264:../Dave/Generated/FREERTOS/tasks.c **** /*
 265:../Dave/Generated/FREERTOS/tasks.c ****  * Task control block.  A task control block (TCB) is allocated for each task,
 266:../Dave/Generated/FREERTOS/tasks.c ****  * and stores task state information, including a pointer to the task's context
 267:../Dave/Generated/FREERTOS/tasks.c ****  * (the task's run time environment, including register values)
 268:../Dave/Generated/FREERTOS/tasks.c ****  */
 269:../Dave/Generated/FREERTOS/tasks.c **** typedef struct tskTaskControlBlock
 270:../Dave/Generated/FREERTOS/tasks.c **** {
 271:../Dave/Generated/FREERTOS/tasks.c **** 	volatile StackType_t	*pxTopOfStack;	/*< Points to the location of the last item placed on the task
 272:../Dave/Generated/FREERTOS/tasks.c **** 
 273:../Dave/Generated/FREERTOS/tasks.c **** 	#if ( portUSING_MPU_WRAPPERS == 1 )
 274:../Dave/Generated/FREERTOS/tasks.c **** 		xMPU_SETTINGS	xMPUSettings;		/*< The MPU settings are defined as part of the port layer.  THIS MU
 275:../Dave/Generated/FREERTOS/tasks.c **** 	#endif
 276:../Dave/Generated/FREERTOS/tasks.c **** 
 277:../Dave/Generated/FREERTOS/tasks.c **** 	ListItem_t			xStateListItem;	/*< The list that the state list item of a task is reference from den
 278:../Dave/Generated/FREERTOS/tasks.c **** 	ListItem_t			xEventListItem;		/*< Used to reference a task from an event list. */
 279:../Dave/Generated/FREERTOS/tasks.c **** 	UBaseType_t			uxPriority;			/*< The priority of the task.  0 is the lowest priority. */
 280:../Dave/Generated/FREERTOS/tasks.c **** 	StackType_t			*pxStack;			/*< Points to the start of the stack. */
 281:../Dave/Generated/FREERTOS/tasks.c **** 	char				pcTaskName[ configMAX_TASK_NAME_LEN ];/*< Descriptive name given to the task when created.
 282:../Dave/Generated/FREERTOS/tasks.c **** 
 283:../Dave/Generated/FREERTOS/tasks.c **** 	#if ( ( portSTACK_GROWTH > 0 ) || ( configRECORD_STACK_HIGH_ADDRESS == 1 ) )
 284:../Dave/Generated/FREERTOS/tasks.c **** 		StackType_t		*pxEndOfStack;		/*< Points to the highest valid address for the stack. */
 285:../Dave/Generated/FREERTOS/tasks.c **** 	#endif
 286:../Dave/Generated/FREERTOS/tasks.c **** 
 287:../Dave/Generated/FREERTOS/tasks.c **** 	#if ( portCRITICAL_NESTING_IN_TCB == 1 )
 288:../Dave/Generated/FREERTOS/tasks.c **** 		UBaseType_t		uxCriticalNesting;	/*< Holds the critical section nesting depth for ports that do no
 289:../Dave/Generated/FREERTOS/tasks.c **** 	#endif
 290:../Dave/Generated/FREERTOS/tasks.c **** 
 291:../Dave/Generated/FREERTOS/tasks.c **** 	#if ( configUSE_TRACE_FACILITY == 1 )
 292:../Dave/Generated/FREERTOS/tasks.c **** 		UBaseType_t		uxTCBNumber;		/*< Stores a number that increments each time a TCB is created.  It al
 293:../Dave/Generated/FREERTOS/tasks.c **** 		UBaseType_t		uxTaskNumber;		/*< Stores a number specifically for use by third party trace code. *
 294:../Dave/Generated/FREERTOS/tasks.c **** 	#endif
 295:../Dave/Generated/FREERTOS/tasks.c **** 
 296:../Dave/Generated/FREERTOS/tasks.c **** 	#if ( configUSE_MUTEXES == 1 )
 297:../Dave/Generated/FREERTOS/tasks.c **** 		UBaseType_t		uxBasePriority;		/*< The priority last assigned to the task - used by the priority i
 298:../Dave/Generated/FREERTOS/tasks.c **** 		UBaseType_t		uxMutexesHeld;
 299:../Dave/Generated/FREERTOS/tasks.c **** 	#endif
 300:../Dave/Generated/FREERTOS/tasks.c **** 
 301:../Dave/Generated/FREERTOS/tasks.c **** 	#if ( configUSE_APPLICATION_TASK_TAG == 1 )
 302:../Dave/Generated/FREERTOS/tasks.c **** 		TaskHookFunction_t pxTaskTag;
 303:../Dave/Generated/FREERTOS/tasks.c **** 	#endif
 304:../Dave/Generated/FREERTOS/tasks.c **** 
 305:../Dave/Generated/FREERTOS/tasks.c **** 	#if( configNUM_THREAD_LOCAL_STORAGE_POINTERS > 0 )
 306:../Dave/Generated/FREERTOS/tasks.c **** 		void			*pvThreadLocalStoragePointers[ configNUM_THREAD_LOCAL_STORAGE_POINTERS ];
 307:../Dave/Generated/FREERTOS/tasks.c **** 	#endif
 308:../Dave/Generated/FREERTOS/tasks.c **** 
 309:../Dave/Generated/FREERTOS/tasks.c **** 	#if( configGENERATE_RUN_TIME_STATS == 1 )
 310:../Dave/Generated/FREERTOS/tasks.c **** 		uint32_t		ulRunTimeCounter;	/*< Stores the amount of time the task has spent in the Running state
 311:../Dave/Generated/FREERTOS/tasks.c **** 	#endif
 312:../Dave/Generated/FREERTOS/tasks.c **** 
 313:../Dave/Generated/FREERTOS/tasks.c **** 	#if ( configUSE_NEWLIB_REENTRANT == 1 )
 314:../Dave/Generated/FREERTOS/tasks.c **** 		/* Allocate a Newlib reent structure that is specific to this task.
 315:../Dave/Generated/FREERTOS/tasks.c **** 		Note Newlib support has been included by popular demand, but is not
 316:../Dave/Generated/FREERTOS/tasks.c **** 		used by the FreeRTOS maintainers themselves.  FreeRTOS is not
 317:../Dave/Generated/FREERTOS/tasks.c **** 		responsible for resulting newlib operation.  User must be familiar with
 318:../Dave/Generated/FREERTOS/tasks.c **** 		newlib and must provide system-wide implementations of the necessary
 319:../Dave/Generated/FREERTOS/tasks.c **** 		stubs. Be warned that (at the time of writing) the current newlib design
 320:../Dave/Generated/FREERTOS/tasks.c **** 		implements a system-wide malloc() that must be provided with locks. */
 321:../Dave/Generated/FREERTOS/tasks.c **** 		struct	_reent xNewLib_reent;
 322:../Dave/Generated/FREERTOS/tasks.c **** 	#endif
 323:../Dave/Generated/FREERTOS/tasks.c **** 
 324:../Dave/Generated/FREERTOS/tasks.c **** 	#if( configUSE_TASK_NOTIFICATIONS == 1 )
 325:../Dave/Generated/FREERTOS/tasks.c **** 		volatile uint32_t ulNotifiedValue;
 326:../Dave/Generated/FREERTOS/tasks.c **** 		volatile uint8_t ucNotifyState;
 327:../Dave/Generated/FREERTOS/tasks.c **** 	#endif
 328:../Dave/Generated/FREERTOS/tasks.c **** 
 329:../Dave/Generated/FREERTOS/tasks.c **** 	/* See the comments above the definition of
 330:../Dave/Generated/FREERTOS/tasks.c **** 	tskSTATIC_AND_DYNAMIC_ALLOCATION_POSSIBLE. */
 331:../Dave/Generated/FREERTOS/tasks.c **** 	#if( tskSTATIC_AND_DYNAMIC_ALLOCATION_POSSIBLE != 0 ) /*lint !e731 Macro has been consolidated for
 332:../Dave/Generated/FREERTOS/tasks.c **** 		uint8_t	ucStaticallyAllocated; 		/*< Set to pdTRUE if the task is a statically allocated to ensur
 333:../Dave/Generated/FREERTOS/tasks.c **** 	#endif
 334:../Dave/Generated/FREERTOS/tasks.c **** 
 335:../Dave/Generated/FREERTOS/tasks.c **** 	#if( INCLUDE_xTaskAbortDelay == 1 )
 336:../Dave/Generated/FREERTOS/tasks.c **** 		uint8_t ucDelayAborted;
 337:../Dave/Generated/FREERTOS/tasks.c **** 	#endif
 338:../Dave/Generated/FREERTOS/tasks.c **** 
 339:../Dave/Generated/FREERTOS/tasks.c **** } tskTCB;
 340:../Dave/Generated/FREERTOS/tasks.c **** 
 341:../Dave/Generated/FREERTOS/tasks.c **** /* The old tskTCB name is maintained above then typedefed to the new TCB_t name
 342:../Dave/Generated/FREERTOS/tasks.c **** below to enable the use of older kernel aware debuggers. */
 343:../Dave/Generated/FREERTOS/tasks.c **** typedef tskTCB TCB_t;
 344:../Dave/Generated/FREERTOS/tasks.c **** 
 345:../Dave/Generated/FREERTOS/tasks.c **** /*lint -save -e956 A manual analysis and inspection has been used to determine
 346:../Dave/Generated/FREERTOS/tasks.c **** which static variables must be declared volatile. */
 347:../Dave/Generated/FREERTOS/tasks.c **** 
 348:../Dave/Generated/FREERTOS/tasks.c **** PRIVILEGED_DATA TCB_t * volatile pxCurrentTCB = NULL;
 349:../Dave/Generated/FREERTOS/tasks.c **** 
 350:../Dave/Generated/FREERTOS/tasks.c **** /* Lists for ready and blocked tasks. --------------------*/
 351:../Dave/Generated/FREERTOS/tasks.c **** PRIVILEGED_DATA static List_t pxReadyTasksLists[ configMAX_PRIORITIES ];/*< Prioritised ready tasks
 352:../Dave/Generated/FREERTOS/tasks.c **** PRIVILEGED_DATA static List_t xDelayedTaskList1;						/*< Delayed tasks. */
 353:../Dave/Generated/FREERTOS/tasks.c **** PRIVILEGED_DATA static List_t xDelayedTaskList2;						/*< Delayed tasks (two lists are used - one f
 354:../Dave/Generated/FREERTOS/tasks.c **** PRIVILEGED_DATA static List_t * volatile pxDelayedTaskList;				/*< Points to the delayed task list 
 355:../Dave/Generated/FREERTOS/tasks.c **** PRIVILEGED_DATA static List_t * volatile pxOverflowDelayedTaskList;		/*< Points to the delayed task
 356:../Dave/Generated/FREERTOS/tasks.c **** PRIVILEGED_DATA static List_t xPendingReadyList;						/*< Tasks that have been readied while the sc
 357:../Dave/Generated/FREERTOS/tasks.c **** 
 358:../Dave/Generated/FREERTOS/tasks.c **** #if( INCLUDE_vTaskDelete == 1 )
 359:../Dave/Generated/FREERTOS/tasks.c **** 
 360:../Dave/Generated/FREERTOS/tasks.c **** 	PRIVILEGED_DATA static List_t xTasksWaitingTermination;				/*< Tasks that have been deleted - but 
 361:../Dave/Generated/FREERTOS/tasks.c **** 	PRIVILEGED_DATA static volatile UBaseType_t uxDeletedTasksWaitingCleanUp = ( UBaseType_t ) 0U;
 362:../Dave/Generated/FREERTOS/tasks.c **** 
 363:../Dave/Generated/FREERTOS/tasks.c **** #endif
 364:../Dave/Generated/FREERTOS/tasks.c **** 
 365:../Dave/Generated/FREERTOS/tasks.c **** #if ( INCLUDE_vTaskSuspend == 1 )
 366:../Dave/Generated/FREERTOS/tasks.c **** 
 367:../Dave/Generated/FREERTOS/tasks.c **** 	PRIVILEGED_DATA static List_t xSuspendedTaskList;					/*< Tasks that are currently suspended. */
 368:../Dave/Generated/FREERTOS/tasks.c **** 
 369:../Dave/Generated/FREERTOS/tasks.c **** #endif
 370:../Dave/Generated/FREERTOS/tasks.c **** 
 371:../Dave/Generated/FREERTOS/tasks.c **** /* Other file private variables. --------------------------------*/
 372:../Dave/Generated/FREERTOS/tasks.c **** PRIVILEGED_DATA static volatile UBaseType_t uxCurrentNumberOfTasks 	= ( UBaseType_t ) 0U;
 373:../Dave/Generated/FREERTOS/tasks.c **** PRIVILEGED_DATA static volatile TickType_t xTickCount 				= ( TickType_t ) configINITIAL_TICK_COUNT
 374:../Dave/Generated/FREERTOS/tasks.c **** PRIVILEGED_DATA static volatile UBaseType_t uxTopReadyPriority 		= tskIDLE_PRIORITY;
 375:../Dave/Generated/FREERTOS/tasks.c **** PRIVILEGED_DATA static volatile BaseType_t xSchedulerRunning 		= pdFALSE;
 376:../Dave/Generated/FREERTOS/tasks.c **** PRIVILEGED_DATA static volatile UBaseType_t uxPendedTicks 			= ( UBaseType_t ) 0U;
 377:../Dave/Generated/FREERTOS/tasks.c **** PRIVILEGED_DATA static volatile BaseType_t xYieldPending 			= pdFALSE;
 378:../Dave/Generated/FREERTOS/tasks.c **** PRIVILEGED_DATA static volatile BaseType_t xNumOfOverflows 			= ( BaseType_t ) 0;
 379:../Dave/Generated/FREERTOS/tasks.c **** PRIVILEGED_DATA static UBaseType_t uxTaskNumber 					= ( UBaseType_t ) 0U;
 380:../Dave/Generated/FREERTOS/tasks.c **** PRIVILEGED_DATA static volatile TickType_t xNextTaskUnblockTime		= ( TickType_t ) 0U; /* Initialise
 381:../Dave/Generated/FREERTOS/tasks.c **** PRIVILEGED_DATA static TaskHandle_t xIdleTaskHandle					= NULL;			/*< Holds the handle of the idle 
 382:../Dave/Generated/FREERTOS/tasks.c **** 
 383:../Dave/Generated/FREERTOS/tasks.c **** /* Context switches are held pending while the scheduler is suspended.  Also,
 384:../Dave/Generated/FREERTOS/tasks.c **** interrupts must not manipulate the xStateListItem of a TCB, or any of the
 385:../Dave/Generated/FREERTOS/tasks.c **** lists the xStateListItem can be referenced from, if the scheduler is suspended.
 386:../Dave/Generated/FREERTOS/tasks.c **** If an interrupt needs to unblock a task while the scheduler is suspended then it
 387:../Dave/Generated/FREERTOS/tasks.c **** moves the task's event list item into the xPendingReadyList, ready for the
 388:../Dave/Generated/FREERTOS/tasks.c **** kernel to move the task from the pending ready list into the real ready list
 389:../Dave/Generated/FREERTOS/tasks.c **** when the scheduler is unsuspended.  The pending ready list itself can only be
 390:../Dave/Generated/FREERTOS/tasks.c **** accessed from a critical section. */
 391:../Dave/Generated/FREERTOS/tasks.c **** PRIVILEGED_DATA static volatile UBaseType_t uxSchedulerSuspended	= ( UBaseType_t ) pdFALSE;
 392:../Dave/Generated/FREERTOS/tasks.c **** 
 393:../Dave/Generated/FREERTOS/tasks.c **** #if ( configGENERATE_RUN_TIME_STATS == 1 )
 394:../Dave/Generated/FREERTOS/tasks.c **** 
 395:../Dave/Generated/FREERTOS/tasks.c **** 	PRIVILEGED_DATA static uint32_t ulTaskSwitchedInTime = 0UL;	/*< Holds the value of a timer/counter
 396:../Dave/Generated/FREERTOS/tasks.c **** 	PRIVILEGED_DATA static uint32_t ulTotalRunTime = 0UL;		/*< Holds the total amount of execution tim
 397:../Dave/Generated/FREERTOS/tasks.c **** 
 398:../Dave/Generated/FREERTOS/tasks.c **** #endif
 399:../Dave/Generated/FREERTOS/tasks.c **** 
 400:../Dave/Generated/FREERTOS/tasks.c **** /*lint -restore */
 401:../Dave/Generated/FREERTOS/tasks.c **** 
 402:../Dave/Generated/FREERTOS/tasks.c **** /*-----------------------------------------------------------*/
 403:../Dave/Generated/FREERTOS/tasks.c **** 
 404:../Dave/Generated/FREERTOS/tasks.c **** /* Callback function prototypes. --------------------------*/
 405:../Dave/Generated/FREERTOS/tasks.c **** #if(  configCHECK_FOR_STACK_OVERFLOW > 0 )
 406:../Dave/Generated/FREERTOS/tasks.c **** 
 407:../Dave/Generated/FREERTOS/tasks.c **** 	extern void vApplicationStackOverflowHook( TaskHandle_t xTask, char *pcTaskName );
 408:../Dave/Generated/FREERTOS/tasks.c **** 
 409:../Dave/Generated/FREERTOS/tasks.c **** #endif
 410:../Dave/Generated/FREERTOS/tasks.c **** 
 411:../Dave/Generated/FREERTOS/tasks.c **** #if( configUSE_TICK_HOOK > 0 )
 412:../Dave/Generated/FREERTOS/tasks.c **** 
 413:../Dave/Generated/FREERTOS/tasks.c **** 	extern void vApplicationTickHook( void );
 414:../Dave/Generated/FREERTOS/tasks.c **** 
 415:../Dave/Generated/FREERTOS/tasks.c **** #endif
 416:../Dave/Generated/FREERTOS/tasks.c **** 
 417:../Dave/Generated/FREERTOS/tasks.c **** #if( configSUPPORT_STATIC_ALLOCATION == 1 )
 418:../Dave/Generated/FREERTOS/tasks.c **** 
 419:../Dave/Generated/FREERTOS/tasks.c **** 	extern void vApplicationGetIdleTaskMemory( StaticTask_t **ppxIdleTaskTCBBuffer, StackType_t **ppxI
 420:../Dave/Generated/FREERTOS/tasks.c **** 
 421:../Dave/Generated/FREERTOS/tasks.c **** #endif
 422:../Dave/Generated/FREERTOS/tasks.c **** 
 423:../Dave/Generated/FREERTOS/tasks.c **** /* File private functions. --------------------------------*/
 424:../Dave/Generated/FREERTOS/tasks.c **** 
 425:../Dave/Generated/FREERTOS/tasks.c **** /**
 426:../Dave/Generated/FREERTOS/tasks.c ****  * Utility task that simply returns pdTRUE if the task referenced by xTask is
 427:../Dave/Generated/FREERTOS/tasks.c ****  * currently in the Suspended state, or pdFALSE if the task referenced by xTask
 428:../Dave/Generated/FREERTOS/tasks.c ****  * is in any other state.
 429:../Dave/Generated/FREERTOS/tasks.c ****  */
 430:../Dave/Generated/FREERTOS/tasks.c **** #if ( INCLUDE_vTaskSuspend == 1 )
 431:../Dave/Generated/FREERTOS/tasks.c **** 
 432:../Dave/Generated/FREERTOS/tasks.c **** 	static BaseType_t prvTaskIsTaskSuspended( const TaskHandle_t xTask ) PRIVILEGED_FUNCTION;
 433:../Dave/Generated/FREERTOS/tasks.c **** 
 434:../Dave/Generated/FREERTOS/tasks.c **** #endif /* INCLUDE_vTaskSuspend */
 435:../Dave/Generated/FREERTOS/tasks.c **** 
 436:../Dave/Generated/FREERTOS/tasks.c **** /*
 437:../Dave/Generated/FREERTOS/tasks.c ****  * Utility to ready all the lists used by the scheduler.  This is called
 438:../Dave/Generated/FREERTOS/tasks.c ****  * automatically upon the creation of the first task.
 439:../Dave/Generated/FREERTOS/tasks.c ****  */
 440:../Dave/Generated/FREERTOS/tasks.c **** static void prvInitialiseTaskLists( void ) PRIVILEGED_FUNCTION;
 441:../Dave/Generated/FREERTOS/tasks.c **** 
 442:../Dave/Generated/FREERTOS/tasks.c **** /*
 443:../Dave/Generated/FREERTOS/tasks.c ****  * The idle task, which as all tasks is implemented as a never ending loop.
 444:../Dave/Generated/FREERTOS/tasks.c ****  * The idle task is automatically created and added to the ready lists upon
 445:../Dave/Generated/FREERTOS/tasks.c ****  * creation of the first user task.
 446:../Dave/Generated/FREERTOS/tasks.c ****  *
 447:../Dave/Generated/FREERTOS/tasks.c ****  * The portTASK_FUNCTION_PROTO() macro is used to allow port/compiler specific
 448:../Dave/Generated/FREERTOS/tasks.c ****  * language extensions.  The equivalent prototype for this function is:
 449:../Dave/Generated/FREERTOS/tasks.c ****  *
 450:../Dave/Generated/FREERTOS/tasks.c ****  * void prvIdleTask( void *pvParameters );
 451:../Dave/Generated/FREERTOS/tasks.c ****  *
 452:../Dave/Generated/FREERTOS/tasks.c ****  */
 453:../Dave/Generated/FREERTOS/tasks.c **** static portTASK_FUNCTION_PROTO( prvIdleTask, pvParameters );
 454:../Dave/Generated/FREERTOS/tasks.c **** 
 455:../Dave/Generated/FREERTOS/tasks.c **** /*
 456:../Dave/Generated/FREERTOS/tasks.c ****  * Utility to free all memory allocated by the scheduler to hold a TCB,
 457:../Dave/Generated/FREERTOS/tasks.c ****  * including the stack pointed to by the TCB.
 458:../Dave/Generated/FREERTOS/tasks.c ****  *
 459:../Dave/Generated/FREERTOS/tasks.c ****  * This does not free memory allocated by the task itself (i.e. memory
 460:../Dave/Generated/FREERTOS/tasks.c ****  * allocated by calls to pvPortMalloc from within the tasks application code).
 461:../Dave/Generated/FREERTOS/tasks.c ****  */
 462:../Dave/Generated/FREERTOS/tasks.c **** #if ( INCLUDE_vTaskDelete == 1 )
 463:../Dave/Generated/FREERTOS/tasks.c **** 
 464:../Dave/Generated/FREERTOS/tasks.c **** 	static void prvDeleteTCB( TCB_t *pxTCB ) PRIVILEGED_FUNCTION;
 465:../Dave/Generated/FREERTOS/tasks.c **** 
 466:../Dave/Generated/FREERTOS/tasks.c **** #endif
 467:../Dave/Generated/FREERTOS/tasks.c **** 
 468:../Dave/Generated/FREERTOS/tasks.c **** /*
 469:../Dave/Generated/FREERTOS/tasks.c ****  * Used only by the idle task.  This checks to see if anything has been placed
 470:../Dave/Generated/FREERTOS/tasks.c ****  * in the list of tasks waiting to be deleted.  If so the task is cleaned up
 471:../Dave/Generated/FREERTOS/tasks.c ****  * and its TCB deleted.
 472:../Dave/Generated/FREERTOS/tasks.c ****  */
 473:../Dave/Generated/FREERTOS/tasks.c **** static void prvCheckTasksWaitingTermination( void ) PRIVILEGED_FUNCTION;
 474:../Dave/Generated/FREERTOS/tasks.c **** 
 475:../Dave/Generated/FREERTOS/tasks.c **** /*
 476:../Dave/Generated/FREERTOS/tasks.c ****  * The currently executing task is entering the Blocked state.  Add the task to
 477:../Dave/Generated/FREERTOS/tasks.c ****  * either the current or the overflow delayed task list.
 478:../Dave/Generated/FREERTOS/tasks.c ****  */
 479:../Dave/Generated/FREERTOS/tasks.c **** static void prvAddCurrentTaskToDelayedList( TickType_t xTicksToWait, const BaseType_t xCanBlockInde
 480:../Dave/Generated/FREERTOS/tasks.c **** 
 481:../Dave/Generated/FREERTOS/tasks.c **** /*
 482:../Dave/Generated/FREERTOS/tasks.c ****  * Fills an TaskStatus_t structure with information on each task that is
 483:../Dave/Generated/FREERTOS/tasks.c ****  * referenced from the pxList list (which may be a ready list, a delayed list,
 484:../Dave/Generated/FREERTOS/tasks.c ****  * a suspended list, etc.).
 485:../Dave/Generated/FREERTOS/tasks.c ****  *
 486:../Dave/Generated/FREERTOS/tasks.c ****  * THIS FUNCTION IS INTENDED FOR DEBUGGING ONLY, AND SHOULD NOT BE CALLED FROM
 487:../Dave/Generated/FREERTOS/tasks.c ****  * NORMAL APPLICATION CODE.
 488:../Dave/Generated/FREERTOS/tasks.c ****  */
 489:../Dave/Generated/FREERTOS/tasks.c **** #if ( configUSE_TRACE_FACILITY == 1 )
 490:../Dave/Generated/FREERTOS/tasks.c **** 
 491:../Dave/Generated/FREERTOS/tasks.c **** 	static UBaseType_t prvListTasksWithinSingleList( TaskStatus_t *pxTaskStatusArray, List_t *pxList, 
 492:../Dave/Generated/FREERTOS/tasks.c **** 
 493:../Dave/Generated/FREERTOS/tasks.c **** #endif
 494:../Dave/Generated/FREERTOS/tasks.c **** 
 495:../Dave/Generated/FREERTOS/tasks.c **** /*
 496:../Dave/Generated/FREERTOS/tasks.c ****  * Searches pxList for a task with name pcNameToQuery - returning a handle to
 497:../Dave/Generated/FREERTOS/tasks.c ****  * the task if it is found, or NULL if the task is not found.
 498:../Dave/Generated/FREERTOS/tasks.c ****  */
 499:../Dave/Generated/FREERTOS/tasks.c **** #if ( INCLUDE_xTaskGetHandle == 1 )
 500:../Dave/Generated/FREERTOS/tasks.c **** 
 501:../Dave/Generated/FREERTOS/tasks.c **** 	static TCB_t *prvSearchForNameWithinSingleList( List_t *pxList, const char pcNameToQuery[] ) PRIVI
 502:../Dave/Generated/FREERTOS/tasks.c **** 
 503:../Dave/Generated/FREERTOS/tasks.c **** #endif
 504:../Dave/Generated/FREERTOS/tasks.c **** 
 505:../Dave/Generated/FREERTOS/tasks.c **** /*
 506:../Dave/Generated/FREERTOS/tasks.c ****  * When a task is created, the stack of the task is filled with a known value.
 507:../Dave/Generated/FREERTOS/tasks.c ****  * This function determines the 'high water mark' of the task stack by
 508:../Dave/Generated/FREERTOS/tasks.c ****  * determining how much of the stack remains at the original preset value.
 509:../Dave/Generated/FREERTOS/tasks.c ****  */
 510:../Dave/Generated/FREERTOS/tasks.c **** #if ( ( configUSE_TRACE_FACILITY == 1 ) || ( INCLUDE_uxTaskGetStackHighWaterMark == 1 ) )
 511:../Dave/Generated/FREERTOS/tasks.c **** 
 512:../Dave/Generated/FREERTOS/tasks.c **** 	static uint16_t prvTaskCheckFreeStackSpace( const uint8_t * pucStackByte ) PRIVILEGED_FUNCTION;
 513:../Dave/Generated/FREERTOS/tasks.c **** 
 514:../Dave/Generated/FREERTOS/tasks.c **** #endif
 515:../Dave/Generated/FREERTOS/tasks.c **** 
 516:../Dave/Generated/FREERTOS/tasks.c **** /*
 517:../Dave/Generated/FREERTOS/tasks.c ****  * Return the amount of time, in ticks, that will pass before the kernel will
 518:../Dave/Generated/FREERTOS/tasks.c ****  * next move a task from the Blocked state to the Running state.
 519:../Dave/Generated/FREERTOS/tasks.c ****  *
 520:../Dave/Generated/FREERTOS/tasks.c ****  * This conditional compilation should use inequality to 0, not equality to 1.
 521:../Dave/Generated/FREERTOS/tasks.c ****  * This is to ensure portSUPPRESS_TICKS_AND_SLEEP() can be called when user
 522:../Dave/Generated/FREERTOS/tasks.c ****  * defined low power mode implementations require configUSE_TICKLESS_IDLE to be
 523:../Dave/Generated/FREERTOS/tasks.c ****  * set to a value other than 1.
 524:../Dave/Generated/FREERTOS/tasks.c ****  */
 525:../Dave/Generated/FREERTOS/tasks.c **** #if ( configUSE_TICKLESS_IDLE != 0 )
 526:../Dave/Generated/FREERTOS/tasks.c **** 
 527:../Dave/Generated/FREERTOS/tasks.c **** 	static TickType_t prvGetExpectedIdleTime( void ) PRIVILEGED_FUNCTION;
 528:../Dave/Generated/FREERTOS/tasks.c **** 
 529:../Dave/Generated/FREERTOS/tasks.c **** #endif
 530:../Dave/Generated/FREERTOS/tasks.c **** 
 531:../Dave/Generated/FREERTOS/tasks.c **** /*
 532:../Dave/Generated/FREERTOS/tasks.c ****  * Set xNextTaskUnblockTime to the time at which the next Blocked state task
 533:../Dave/Generated/FREERTOS/tasks.c ****  * will exit the Blocked state.
 534:../Dave/Generated/FREERTOS/tasks.c ****  */
 535:../Dave/Generated/FREERTOS/tasks.c **** static void prvResetNextTaskUnblockTime( void );
 536:../Dave/Generated/FREERTOS/tasks.c **** 
 537:../Dave/Generated/FREERTOS/tasks.c **** #if ( ( configUSE_TRACE_FACILITY == 1 ) && ( configUSE_STATS_FORMATTING_FUNCTIONS > 0 ) )
 538:../Dave/Generated/FREERTOS/tasks.c **** 
 539:../Dave/Generated/FREERTOS/tasks.c **** 	/*
 540:../Dave/Generated/FREERTOS/tasks.c **** 	 * Helper function used to pad task names with spaces when printing out
 541:../Dave/Generated/FREERTOS/tasks.c **** 	 * human readable tables of task information.
 542:../Dave/Generated/FREERTOS/tasks.c **** 	 */
 543:../Dave/Generated/FREERTOS/tasks.c **** 	static char *prvWriteNameToBuffer( char *pcBuffer, const char *pcTaskName ) PRIVILEGED_FUNCTION;
 544:../Dave/Generated/FREERTOS/tasks.c **** 
 545:../Dave/Generated/FREERTOS/tasks.c **** #endif
 546:../Dave/Generated/FREERTOS/tasks.c **** 
 547:../Dave/Generated/FREERTOS/tasks.c **** /*
 548:../Dave/Generated/FREERTOS/tasks.c ****  * Called after a Task_t structure has been allocated either statically or
 549:../Dave/Generated/FREERTOS/tasks.c ****  * dynamically to fill in the structure's members.
 550:../Dave/Generated/FREERTOS/tasks.c ****  */
 551:../Dave/Generated/FREERTOS/tasks.c **** static void prvInitialiseNewTask( 	TaskFunction_t pxTaskCode,
 552:../Dave/Generated/FREERTOS/tasks.c **** 									const char * const pcName, 		/*lint !e971 Unqualified char types are allowed for strings a
 553:../Dave/Generated/FREERTOS/tasks.c **** 									const uint32_t ulStackDepth,
 554:../Dave/Generated/FREERTOS/tasks.c **** 									void * const pvParameters,
 555:../Dave/Generated/FREERTOS/tasks.c **** 									UBaseType_t uxPriority,
 556:../Dave/Generated/FREERTOS/tasks.c **** 									TaskHandle_t * const pxCreatedTask,
 557:../Dave/Generated/FREERTOS/tasks.c **** 									TCB_t *pxNewTCB,
 558:../Dave/Generated/FREERTOS/tasks.c **** 									const MemoryRegion_t * const xRegions ) PRIVILEGED_FUNCTION;
 559:../Dave/Generated/FREERTOS/tasks.c **** 
 560:../Dave/Generated/FREERTOS/tasks.c **** /*
 561:../Dave/Generated/FREERTOS/tasks.c ****  * Called after a new task has been created and initialised to place the task
 562:../Dave/Generated/FREERTOS/tasks.c ****  * under the control of the scheduler.
 563:../Dave/Generated/FREERTOS/tasks.c ****  */
 564:../Dave/Generated/FREERTOS/tasks.c **** static void prvAddNewTaskToReadyList( TCB_t *pxNewTCB ) PRIVILEGED_FUNCTION;
 565:../Dave/Generated/FREERTOS/tasks.c **** 
 566:../Dave/Generated/FREERTOS/tasks.c **** /*
 567:../Dave/Generated/FREERTOS/tasks.c ****  * freertos_tasks_c_additions_init() should only be called if the user definable
 568:../Dave/Generated/FREERTOS/tasks.c ****  * macro FREERTOS_TASKS_C_ADDITIONS_INIT() is defined, as that is the only macro
 569:../Dave/Generated/FREERTOS/tasks.c ****  * called by the function.
 570:../Dave/Generated/FREERTOS/tasks.c ****  */
 571:../Dave/Generated/FREERTOS/tasks.c **** #ifdef FREERTOS_TASKS_C_ADDITIONS_INIT
 572:../Dave/Generated/FREERTOS/tasks.c **** 
 573:../Dave/Generated/FREERTOS/tasks.c **** 	static void freertos_tasks_c_additions_init( void ) PRIVILEGED_FUNCTION;
 574:../Dave/Generated/FREERTOS/tasks.c **** 
 575:../Dave/Generated/FREERTOS/tasks.c **** #endif
 576:../Dave/Generated/FREERTOS/tasks.c **** 
 577:../Dave/Generated/FREERTOS/tasks.c **** /*-----------------------------------------------------------*/
 578:../Dave/Generated/FREERTOS/tasks.c **** 
 579:../Dave/Generated/FREERTOS/tasks.c **** #if( configSUPPORT_STATIC_ALLOCATION == 1 )
 580:../Dave/Generated/FREERTOS/tasks.c **** 
 581:../Dave/Generated/FREERTOS/tasks.c **** 	TaskHandle_t xTaskCreateStatic(	TaskFunction_t pxTaskCode,
 582:../Dave/Generated/FREERTOS/tasks.c **** 									const char * const pcName,		/*lint !e971 Unqualified char types are allowed for strings an
 583:../Dave/Generated/FREERTOS/tasks.c **** 									const uint32_t ulStackDepth,
 584:../Dave/Generated/FREERTOS/tasks.c **** 									void * const pvParameters,
 585:../Dave/Generated/FREERTOS/tasks.c **** 									UBaseType_t uxPriority,
 586:../Dave/Generated/FREERTOS/tasks.c **** 									StackType_t * const puxStackBuffer,
 587:../Dave/Generated/FREERTOS/tasks.c **** 									StaticTask_t * const pxTaskBuffer )
 588:../Dave/Generated/FREERTOS/tasks.c **** 	{
 589:../Dave/Generated/FREERTOS/tasks.c **** 	TCB_t *pxNewTCB;
 590:../Dave/Generated/FREERTOS/tasks.c **** 	TaskHandle_t xReturn;
 591:../Dave/Generated/FREERTOS/tasks.c **** 
 592:../Dave/Generated/FREERTOS/tasks.c **** 		configASSERT( puxStackBuffer != NULL );
 593:../Dave/Generated/FREERTOS/tasks.c **** 		configASSERT( pxTaskBuffer != NULL );
 594:../Dave/Generated/FREERTOS/tasks.c **** 
 595:../Dave/Generated/FREERTOS/tasks.c **** 		#if( configASSERT_DEFINED == 1 )
 596:../Dave/Generated/FREERTOS/tasks.c **** 		{
 597:../Dave/Generated/FREERTOS/tasks.c **** 			/* Sanity check that the size of the structure used to declare a
 598:../Dave/Generated/FREERTOS/tasks.c **** 			variable of type StaticTask_t equals the size of the real task
 599:../Dave/Generated/FREERTOS/tasks.c **** 			structure. */
 600:../Dave/Generated/FREERTOS/tasks.c **** 			volatile size_t xSize = sizeof( StaticTask_t );
 601:../Dave/Generated/FREERTOS/tasks.c **** 			configASSERT( xSize == sizeof( TCB_t ) );
 602:../Dave/Generated/FREERTOS/tasks.c **** 		}
 603:../Dave/Generated/FREERTOS/tasks.c **** 		#endif /* configASSERT_DEFINED */
 604:../Dave/Generated/FREERTOS/tasks.c **** 
 605:../Dave/Generated/FREERTOS/tasks.c **** 
 606:../Dave/Generated/FREERTOS/tasks.c **** 		if( ( pxTaskBuffer != NULL ) && ( puxStackBuffer != NULL ) )
 607:../Dave/Generated/FREERTOS/tasks.c **** 		{
 608:../Dave/Generated/FREERTOS/tasks.c **** 			/* The memory used for the task's TCB and stack are passed into this
 609:../Dave/Generated/FREERTOS/tasks.c **** 			function - use them. */
 610:../Dave/Generated/FREERTOS/tasks.c **** 			pxNewTCB = ( TCB_t * ) pxTaskBuffer; /*lint !e740 Unusual cast is ok as the structures are desig
 611:../Dave/Generated/FREERTOS/tasks.c **** 			pxNewTCB->pxStack = ( StackType_t * ) puxStackBuffer;
 612:../Dave/Generated/FREERTOS/tasks.c **** 
 613:../Dave/Generated/FREERTOS/tasks.c **** 			#if( tskSTATIC_AND_DYNAMIC_ALLOCATION_POSSIBLE != 0 ) /*lint !e731 Macro has been consolidated f
 614:../Dave/Generated/FREERTOS/tasks.c **** 			{
 615:../Dave/Generated/FREERTOS/tasks.c **** 				/* Tasks can be created statically or dynamically, so note this
 616:../Dave/Generated/FREERTOS/tasks.c **** 				task was created statically in case the task is later deleted. */
 617:../Dave/Generated/FREERTOS/tasks.c **** 				pxNewTCB->ucStaticallyAllocated = tskSTATICALLY_ALLOCATED_STACK_AND_TCB;
 618:../Dave/Generated/FREERTOS/tasks.c **** 			}
 619:../Dave/Generated/FREERTOS/tasks.c **** 			#endif /* configSUPPORT_DYNAMIC_ALLOCATION */
 620:../Dave/Generated/FREERTOS/tasks.c **** 
 621:../Dave/Generated/FREERTOS/tasks.c **** 			prvInitialiseNewTask( pxTaskCode, pcName, ulStackDepth, pvParameters, uxPriority, &xReturn, pxNe
 622:../Dave/Generated/FREERTOS/tasks.c **** 			prvAddNewTaskToReadyList( pxNewTCB );
 623:../Dave/Generated/FREERTOS/tasks.c **** 		}
 624:../Dave/Generated/FREERTOS/tasks.c **** 		else
 625:../Dave/Generated/FREERTOS/tasks.c **** 		{
 626:../Dave/Generated/FREERTOS/tasks.c **** 			xReturn = NULL;
 627:../Dave/Generated/FREERTOS/tasks.c **** 		}
 628:../Dave/Generated/FREERTOS/tasks.c **** 
 629:../Dave/Generated/FREERTOS/tasks.c **** 		return xReturn;
 630:../Dave/Generated/FREERTOS/tasks.c **** 	}
 631:../Dave/Generated/FREERTOS/tasks.c **** 
 632:../Dave/Generated/FREERTOS/tasks.c **** #endif /* SUPPORT_STATIC_ALLOCATION */
 633:../Dave/Generated/FREERTOS/tasks.c **** /*-----------------------------------------------------------*/
 634:../Dave/Generated/FREERTOS/tasks.c **** 
 635:../Dave/Generated/FREERTOS/tasks.c **** #if( ( portUSING_MPU_WRAPPERS == 1 ) && ( configSUPPORT_STATIC_ALLOCATION == 1 ) )
 636:../Dave/Generated/FREERTOS/tasks.c **** 
 637:../Dave/Generated/FREERTOS/tasks.c **** 	BaseType_t xTaskCreateRestrictedStatic( const TaskParameters_t * const pxTaskDefinition, TaskHandl
 638:../Dave/Generated/FREERTOS/tasks.c **** 	{
 639:../Dave/Generated/FREERTOS/tasks.c **** 	TCB_t *pxNewTCB;
 640:../Dave/Generated/FREERTOS/tasks.c **** 	BaseType_t xReturn = errCOULD_NOT_ALLOCATE_REQUIRED_MEMORY;
 641:../Dave/Generated/FREERTOS/tasks.c **** 
 642:../Dave/Generated/FREERTOS/tasks.c **** 		configASSERT( pxTaskDefinition->puxStackBuffer != NULL );
 643:../Dave/Generated/FREERTOS/tasks.c **** 		configASSERT( pxTaskDefinition->pxTaskBuffer != NULL );
 644:../Dave/Generated/FREERTOS/tasks.c **** 
 645:../Dave/Generated/FREERTOS/tasks.c **** 		if( ( pxTaskDefinition->puxStackBuffer != NULL ) && ( pxTaskDefinition->pxTaskBuffer != NULL ) )
 646:../Dave/Generated/FREERTOS/tasks.c **** 		{
 647:../Dave/Generated/FREERTOS/tasks.c **** 			/* Allocate space for the TCB.  Where the memory comes from depends
 648:../Dave/Generated/FREERTOS/tasks.c **** 			on the implementation of the port malloc function and whether or
 649:../Dave/Generated/FREERTOS/tasks.c **** 			not static allocation is being used. */
 650:../Dave/Generated/FREERTOS/tasks.c **** 			pxNewTCB = ( TCB_t * ) pxTaskDefinition->pxTaskBuffer;
 651:../Dave/Generated/FREERTOS/tasks.c **** 
 652:../Dave/Generated/FREERTOS/tasks.c **** 			/* Store the stack location in the TCB. */
 653:../Dave/Generated/FREERTOS/tasks.c **** 			pxNewTCB->pxStack = pxTaskDefinition->puxStackBuffer;
 654:../Dave/Generated/FREERTOS/tasks.c **** 
 655:../Dave/Generated/FREERTOS/tasks.c **** 			#if( tskSTATIC_AND_DYNAMIC_ALLOCATION_POSSIBLE != 0 )
 656:../Dave/Generated/FREERTOS/tasks.c **** 			{
 657:../Dave/Generated/FREERTOS/tasks.c **** 				/* Tasks can be created statically or dynamically, so note this
 658:../Dave/Generated/FREERTOS/tasks.c **** 				task was created statically in case the task is later deleted. */
 659:../Dave/Generated/FREERTOS/tasks.c **** 				pxNewTCB->ucStaticallyAllocated = tskSTATICALLY_ALLOCATED_STACK_AND_TCB;
 660:../Dave/Generated/FREERTOS/tasks.c **** 			}
 661:../Dave/Generated/FREERTOS/tasks.c **** 			#endif /* configSUPPORT_DYNAMIC_ALLOCATION */
 662:../Dave/Generated/FREERTOS/tasks.c **** 
 663:../Dave/Generated/FREERTOS/tasks.c **** 			prvInitialiseNewTask(	pxTaskDefinition->pvTaskCode,
 664:../Dave/Generated/FREERTOS/tasks.c **** 									pxTaskDefinition->pcName,
 665:../Dave/Generated/FREERTOS/tasks.c **** 									( uint32_t ) pxTaskDefinition->usStackDepth,
 666:../Dave/Generated/FREERTOS/tasks.c **** 									pxTaskDefinition->pvParameters,
 667:../Dave/Generated/FREERTOS/tasks.c **** 									pxTaskDefinition->uxPriority,
 668:../Dave/Generated/FREERTOS/tasks.c **** 									pxCreatedTask, pxNewTCB,
 669:../Dave/Generated/FREERTOS/tasks.c **** 									pxTaskDefinition->xRegions );
 670:../Dave/Generated/FREERTOS/tasks.c **** 
 671:../Dave/Generated/FREERTOS/tasks.c **** 			prvAddNewTaskToReadyList( pxNewTCB );
 672:../Dave/Generated/FREERTOS/tasks.c **** 			xReturn = pdPASS;
 673:../Dave/Generated/FREERTOS/tasks.c **** 		}
 674:../Dave/Generated/FREERTOS/tasks.c **** 
 675:../Dave/Generated/FREERTOS/tasks.c **** 		return xReturn;
 676:../Dave/Generated/FREERTOS/tasks.c **** 	}
 677:../Dave/Generated/FREERTOS/tasks.c **** 
 678:../Dave/Generated/FREERTOS/tasks.c **** #endif /* ( portUSING_MPU_WRAPPERS == 1 ) && ( configSUPPORT_STATIC_ALLOCATION == 1 ) */
 679:../Dave/Generated/FREERTOS/tasks.c **** /*-----------------------------------------------------------*/
 680:../Dave/Generated/FREERTOS/tasks.c **** 
 681:../Dave/Generated/FREERTOS/tasks.c **** #if( ( portUSING_MPU_WRAPPERS == 1 ) && ( configSUPPORT_DYNAMIC_ALLOCATION == 1 ) )
 682:../Dave/Generated/FREERTOS/tasks.c **** 
 683:../Dave/Generated/FREERTOS/tasks.c **** 	BaseType_t xTaskCreateRestricted( const TaskParameters_t * const pxTaskDefinition, TaskHandle_t *p
 684:../Dave/Generated/FREERTOS/tasks.c **** 	{
 685:../Dave/Generated/FREERTOS/tasks.c **** 	TCB_t *pxNewTCB;
 686:../Dave/Generated/FREERTOS/tasks.c **** 	BaseType_t xReturn = errCOULD_NOT_ALLOCATE_REQUIRED_MEMORY;
 687:../Dave/Generated/FREERTOS/tasks.c **** 
 688:../Dave/Generated/FREERTOS/tasks.c **** 		configASSERT( pxTaskDefinition->puxStackBuffer );
 689:../Dave/Generated/FREERTOS/tasks.c **** 
 690:../Dave/Generated/FREERTOS/tasks.c **** 		if( pxTaskDefinition->puxStackBuffer != NULL )
 691:../Dave/Generated/FREERTOS/tasks.c **** 		{
 692:../Dave/Generated/FREERTOS/tasks.c **** 			/* Allocate space for the TCB.  Where the memory comes from depends
 693:../Dave/Generated/FREERTOS/tasks.c **** 			on the implementation of the port malloc function and whether or
 694:../Dave/Generated/FREERTOS/tasks.c **** 			not static allocation is being used. */
 695:../Dave/Generated/FREERTOS/tasks.c **** 			pxNewTCB = ( TCB_t * ) pvPortMalloc( sizeof( TCB_t ) );
 696:../Dave/Generated/FREERTOS/tasks.c **** 
 697:../Dave/Generated/FREERTOS/tasks.c **** 			if( pxNewTCB != NULL )
 698:../Dave/Generated/FREERTOS/tasks.c **** 			{
 699:../Dave/Generated/FREERTOS/tasks.c **** 				/* Store the stack location in the TCB. */
 700:../Dave/Generated/FREERTOS/tasks.c **** 				pxNewTCB->pxStack = pxTaskDefinition->puxStackBuffer;
 701:../Dave/Generated/FREERTOS/tasks.c **** 
 702:../Dave/Generated/FREERTOS/tasks.c **** 				#if( configSUPPORT_STATIC_ALLOCATION == 1 )
 703:../Dave/Generated/FREERTOS/tasks.c **** 				{
 704:../Dave/Generated/FREERTOS/tasks.c **** 					/* Tasks can be created statically or dynamically, so note
 705:../Dave/Generated/FREERTOS/tasks.c **** 					this task had a statically allocated stack in case it is
 706:../Dave/Generated/FREERTOS/tasks.c **** 					later deleted.  The TCB was allocated dynamically. */
 707:../Dave/Generated/FREERTOS/tasks.c **** 					pxNewTCB->ucStaticallyAllocated = tskSTATICALLY_ALLOCATED_STACK_ONLY;
 708:../Dave/Generated/FREERTOS/tasks.c **** 				}
 709:../Dave/Generated/FREERTOS/tasks.c **** 				#endif
 710:../Dave/Generated/FREERTOS/tasks.c **** 
 711:../Dave/Generated/FREERTOS/tasks.c **** 				prvInitialiseNewTask(	pxTaskDefinition->pvTaskCode,
 712:../Dave/Generated/FREERTOS/tasks.c **** 										pxTaskDefinition->pcName,
 713:../Dave/Generated/FREERTOS/tasks.c **** 										( uint32_t ) pxTaskDefinition->usStackDepth,
 714:../Dave/Generated/FREERTOS/tasks.c **** 										pxTaskDefinition->pvParameters,
 715:../Dave/Generated/FREERTOS/tasks.c **** 										pxTaskDefinition->uxPriority,
 716:../Dave/Generated/FREERTOS/tasks.c **** 										pxCreatedTask, pxNewTCB,
 717:../Dave/Generated/FREERTOS/tasks.c **** 										pxTaskDefinition->xRegions );
 718:../Dave/Generated/FREERTOS/tasks.c **** 
 719:../Dave/Generated/FREERTOS/tasks.c **** 				prvAddNewTaskToReadyList( pxNewTCB );
 720:../Dave/Generated/FREERTOS/tasks.c **** 				xReturn = pdPASS;
 721:../Dave/Generated/FREERTOS/tasks.c **** 			}
 722:../Dave/Generated/FREERTOS/tasks.c **** 		}
 723:../Dave/Generated/FREERTOS/tasks.c **** 
 724:../Dave/Generated/FREERTOS/tasks.c **** 		return xReturn;
 725:../Dave/Generated/FREERTOS/tasks.c **** 	}
 726:../Dave/Generated/FREERTOS/tasks.c **** 
 727:../Dave/Generated/FREERTOS/tasks.c **** #endif /* portUSING_MPU_WRAPPERS */
 728:../Dave/Generated/FREERTOS/tasks.c **** /*-----------------------------------------------------------*/
 729:../Dave/Generated/FREERTOS/tasks.c **** 
 730:../Dave/Generated/FREERTOS/tasks.c **** #if( configSUPPORT_DYNAMIC_ALLOCATION == 1 )
 731:../Dave/Generated/FREERTOS/tasks.c **** 
 732:../Dave/Generated/FREERTOS/tasks.c **** 	BaseType_t xTaskCreate(	TaskFunction_t pxTaskCode,
 733:../Dave/Generated/FREERTOS/tasks.c **** 							const char * const pcName,		/*lint !e971 Unqualified char types are allowed for strings and 
 734:../Dave/Generated/FREERTOS/tasks.c **** 							const configSTACK_DEPTH_TYPE usStackDepth,
 735:../Dave/Generated/FREERTOS/tasks.c **** 							void * const pvParameters,
 736:../Dave/Generated/FREERTOS/tasks.c **** 							UBaseType_t uxPriority,
 737:../Dave/Generated/FREERTOS/tasks.c **** 							TaskHandle_t * const pxCreatedTask )
 738:../Dave/Generated/FREERTOS/tasks.c **** 	{
 155              	 .loc 1 738 0
 156              	 .cfi_startproc
 157              	 
 158              	 
 159 0000 80B5     	 push {r7,lr}
 160              	.LCFI0:
 161              	 .cfi_def_cfa_offset 8
 162              	 .cfi_offset 7,-8
 163              	 .cfi_offset 14,-4
 164 0002 8CB0     	 sub sp,sp,#48
 165              	.LCFI1:
 166              	 .cfi_def_cfa_offset 56
 167 0004 04AF     	 add r7,sp,#16
 168              	.LCFI2:
 169              	 .cfi_def_cfa 7,40
 170 0006 F860     	 str r0,[r7,#12]
 171 0008 B960     	 str r1,[r7,#8]
 172 000a 3B60     	 str r3,[r7]
 173 000c 1346     	 mov r3,r2
 174 000e FB80     	 strh r3,[r7,#6]
 175              	.LBB111:
 739:../Dave/Generated/FREERTOS/tasks.c **** 	TCB_t *pxNewTCB;
 740:../Dave/Generated/FREERTOS/tasks.c **** 	BaseType_t xReturn;
 741:../Dave/Generated/FREERTOS/tasks.c **** 
 742:../Dave/Generated/FREERTOS/tasks.c **** 		/* If the stack grows down then allocate the stack then the TCB so the stack
 743:../Dave/Generated/FREERTOS/tasks.c **** 		does not grow into the TCB.  Likewise if the stack grows up then allocate
 744:../Dave/Generated/FREERTOS/tasks.c **** 		the TCB then the stack. */
 745:../Dave/Generated/FREERTOS/tasks.c **** 		#if( portSTACK_GROWTH > 0 )
 746:../Dave/Generated/FREERTOS/tasks.c **** 		{
 747:../Dave/Generated/FREERTOS/tasks.c **** 			/* Allocate space for the TCB.  Where the memory comes from depends on
 748:../Dave/Generated/FREERTOS/tasks.c **** 			the implementation of the port malloc function and whether or not static
 749:../Dave/Generated/FREERTOS/tasks.c **** 			allocation is being used. */
 750:../Dave/Generated/FREERTOS/tasks.c **** 			pxNewTCB = ( TCB_t * ) pvPortMalloc( sizeof( TCB_t ) );
 751:../Dave/Generated/FREERTOS/tasks.c **** 
 752:../Dave/Generated/FREERTOS/tasks.c **** 			if( pxNewTCB != NULL )
 753:../Dave/Generated/FREERTOS/tasks.c **** 			{
 754:../Dave/Generated/FREERTOS/tasks.c **** 				/* Allocate space for the stack used by the task being created.
 755:../Dave/Generated/FREERTOS/tasks.c **** 				The base of the stack memory stored in the TCB so the task can
 756:../Dave/Generated/FREERTOS/tasks.c **** 				be deleted later if required. */
 757:../Dave/Generated/FREERTOS/tasks.c **** 				pxNewTCB->pxStack = ( StackType_t * ) pvPortMalloc( ( ( ( size_t ) usStackDepth ) * sizeof( Sta
 758:../Dave/Generated/FREERTOS/tasks.c **** 
 759:../Dave/Generated/FREERTOS/tasks.c **** 				if( pxNewTCB->pxStack == NULL )
 760:../Dave/Generated/FREERTOS/tasks.c **** 				{
 761:../Dave/Generated/FREERTOS/tasks.c **** 					/* Could not allocate the stack.  Delete the allocated TCB. */
 762:../Dave/Generated/FREERTOS/tasks.c **** 					vPortFree( pxNewTCB );
 763:../Dave/Generated/FREERTOS/tasks.c **** 					pxNewTCB = NULL;
 764:../Dave/Generated/FREERTOS/tasks.c **** 				}
 765:../Dave/Generated/FREERTOS/tasks.c **** 			}
 766:../Dave/Generated/FREERTOS/tasks.c **** 		}
 767:../Dave/Generated/FREERTOS/tasks.c **** 		#else /* portSTACK_GROWTH */
 768:../Dave/Generated/FREERTOS/tasks.c **** 		{
 769:../Dave/Generated/FREERTOS/tasks.c **** 		StackType_t *pxStack;
 770:../Dave/Generated/FREERTOS/tasks.c **** 
 771:../Dave/Generated/FREERTOS/tasks.c **** 			/* Allocate space for the stack used by the task being created. */
 772:../Dave/Generated/FREERTOS/tasks.c **** 			pxStack = ( StackType_t * ) pvPortMalloc( ( ( ( size_t ) usStackDepth ) * sizeof( StackType_t ) 
 176              	 .loc 1 772 0
 177 0010 FB88     	 ldrh r3,[r7,#6]
 178 0012 9B00     	 lsls r3,r3,#2
 179 0014 1846     	 mov r0,r3
 180 0016 FFF7FEFF 	 bl pvPortMalloc
 181 001a 7861     	 str r0,[r7,#20]
 773:../Dave/Generated/FREERTOS/tasks.c **** 
 774:../Dave/Generated/FREERTOS/tasks.c **** 			if( pxStack != NULL )
 182              	 .loc 1 774 0
 183 001c 7B69     	 ldr r3,[r7,#20]
 184 001e 002B     	 cmp r3,#0
 185 0020 0ED0     	 beq .L2
 775:../Dave/Generated/FREERTOS/tasks.c **** 			{
 776:../Dave/Generated/FREERTOS/tasks.c **** 				/* Allocate space for the TCB. */
 777:../Dave/Generated/FREERTOS/tasks.c **** 				pxNewTCB = ( TCB_t * ) pvPortMalloc( sizeof( TCB_t ) ); /*lint !e961 MISRA exception as the cas
 186              	 .loc 1 777 0
 187 0022 7020     	 movs r0,#112
 188 0024 FFF7FEFF 	 bl pvPortMalloc
 189 0028 F861     	 str r0,[r7,#28]
 778:../Dave/Generated/FREERTOS/tasks.c **** 
 779:../Dave/Generated/FREERTOS/tasks.c **** 				if( pxNewTCB != NULL )
 190              	 .loc 1 779 0
 191 002a FB69     	 ldr r3,[r7,#28]
 192 002c 002B     	 cmp r3,#0
 193 002e 03D0     	 beq .L3
 780:../Dave/Generated/FREERTOS/tasks.c **** 				{
 781:../Dave/Generated/FREERTOS/tasks.c **** 					/* Store the stack location in the TCB. */
 782:../Dave/Generated/FREERTOS/tasks.c **** 					pxNewTCB->pxStack = pxStack;
 194              	 .loc 1 782 0
 195 0030 FB69     	 ldr r3,[r7,#28]
 196 0032 7A69     	 ldr r2,[r7,#20]
 197 0034 1A63     	 str r2,[r3,#48]
 198 0036 05E0     	 b .L5
 199              	.L3:
 783:../Dave/Generated/FREERTOS/tasks.c **** 				}
 784:../Dave/Generated/FREERTOS/tasks.c **** 				else
 785:../Dave/Generated/FREERTOS/tasks.c **** 				{
 786:../Dave/Generated/FREERTOS/tasks.c **** 					/* The stack cannot be used as the TCB was not created.  Free
 787:../Dave/Generated/FREERTOS/tasks.c **** 					it again. */
 788:../Dave/Generated/FREERTOS/tasks.c **** 					vPortFree( pxStack );
 200              	 .loc 1 788 0
 201 0038 7869     	 ldr r0,[r7,#20]
 202 003a FFF7FEFF 	 bl vPortFree
 203 003e 01E0     	 b .L5
 204              	.L2:
 789:../Dave/Generated/FREERTOS/tasks.c **** 				}
 790:../Dave/Generated/FREERTOS/tasks.c **** 			}
 791:../Dave/Generated/FREERTOS/tasks.c **** 			else
 792:../Dave/Generated/FREERTOS/tasks.c **** 			{
 793:../Dave/Generated/FREERTOS/tasks.c **** 				pxNewTCB = NULL;
 205              	 .loc 1 793 0
 206 0040 0023     	 movs r3,#0
 207 0042 FB61     	 str r3,[r7,#28]
 208              	.L5:
 209              	.LBE111:
 794:../Dave/Generated/FREERTOS/tasks.c **** 			}
 795:../Dave/Generated/FREERTOS/tasks.c **** 		}
 796:../Dave/Generated/FREERTOS/tasks.c **** 		#endif /* portSTACK_GROWTH */
 797:../Dave/Generated/FREERTOS/tasks.c **** 
 798:../Dave/Generated/FREERTOS/tasks.c **** 		if( pxNewTCB != NULL )
 210              	 .loc 1 798 0
 211 0044 FB69     	 ldr r3,[r7,#28]
 212 0046 002B     	 cmp r3,#0
 213 0048 13D0     	 beq .L6
 799:../Dave/Generated/FREERTOS/tasks.c **** 		{
 800:../Dave/Generated/FREERTOS/tasks.c **** 			#if( tskSTATIC_AND_DYNAMIC_ALLOCATION_POSSIBLE != 0 ) /*lint !e731 Macro has been consolidated f
 801:../Dave/Generated/FREERTOS/tasks.c **** 			{
 802:../Dave/Generated/FREERTOS/tasks.c **** 				/* Tasks can be created statically or dynamically, so note this
 803:../Dave/Generated/FREERTOS/tasks.c **** 				task was created dynamically in case it is later deleted. */
 804:../Dave/Generated/FREERTOS/tasks.c **** 				pxNewTCB->ucStaticallyAllocated = tskDYNAMICALLY_ALLOCATED_STACK_AND_TCB;
 805:../Dave/Generated/FREERTOS/tasks.c **** 			}
 806:../Dave/Generated/FREERTOS/tasks.c **** 			#endif /* configSUPPORT_STATIC_ALLOCATION */
 807:../Dave/Generated/FREERTOS/tasks.c **** 
 808:../Dave/Generated/FREERTOS/tasks.c **** 			prvInitialiseNewTask( pxTaskCode, pcName, ( uint32_t ) usStackDepth, pvParameters, uxPriority, p
 214              	 .loc 1 808 0
 215 004a FA88     	 ldrh r2,[r7,#6]
 216 004c BB6A     	 ldr r3,[r7,#40]
 217 004e 0093     	 str r3,[sp]
 218 0050 FB6A     	 ldr r3,[r7,#44]
 219 0052 0193     	 str r3,[sp,#4]
 220 0054 FB69     	 ldr r3,[r7,#28]
 221 0056 0293     	 str r3,[sp,#8]
 222 0058 0023     	 movs r3,#0
 223 005a 0393     	 str r3,[sp,#12]
 224 005c F868     	 ldr r0,[r7,#12]
 225 005e B968     	 ldr r1,[r7,#8]
 226 0060 3B68     	 ldr r3,[r7]
 227 0062 FFF7FEFF 	 bl prvInitialiseNewTask
 809:../Dave/Generated/FREERTOS/tasks.c **** 			prvAddNewTaskToReadyList( pxNewTCB );
 228              	 .loc 1 809 0
 229 0066 F869     	 ldr r0,[r7,#28]
 230 0068 FFF7FEFF 	 bl prvAddNewTaskToReadyList
 810:../Dave/Generated/FREERTOS/tasks.c **** 			xReturn = pdPASS;
 231              	 .loc 1 810 0
 232 006c 0123     	 movs r3,#1
 233 006e BB61     	 str r3,[r7,#24]
 234 0070 02E0     	 b .L7
 235              	.L6:
 811:../Dave/Generated/FREERTOS/tasks.c **** 		}
 812:../Dave/Generated/FREERTOS/tasks.c **** 		else
 813:../Dave/Generated/FREERTOS/tasks.c **** 		{
 814:../Dave/Generated/FREERTOS/tasks.c **** 			xReturn = errCOULD_NOT_ALLOCATE_REQUIRED_MEMORY;
 236              	 .loc 1 814 0
 237 0072 4FF0FF33 	 mov r3,#-1
 238 0076 BB61     	 str r3,[r7,#24]
 239              	.L7:
 815:../Dave/Generated/FREERTOS/tasks.c **** 		}
 816:../Dave/Generated/FREERTOS/tasks.c **** 
 817:../Dave/Generated/FREERTOS/tasks.c **** 		return xReturn;
 240              	 .loc 1 817 0
 241 0078 BB69     	 ldr r3,[r7,#24]
 818:../Dave/Generated/FREERTOS/tasks.c **** 	}
 242              	 .loc 1 818 0
 243 007a 1846     	 mov r0,r3
 244 007c 2037     	 adds r7,r7,#32
 245              	.LCFI3:
 246              	 .cfi_def_cfa_offset 8
 247 007e BD46     	 mov sp,r7
 248              	.LCFI4:
 249              	 .cfi_def_cfa_register 13
 250              	 
 251 0080 80BD     	 pop {r7,pc}
 252              	 .cfi_endproc
 253              	.LFE135:
 255 0082 00BF     	 .section .text.prvInitialiseNewTask,"ax",%progbits
 256              	 .align 2
 257              	 .thumb
 258              	 .thumb_func
 260              	prvInitialiseNewTask:
 261              	.LFB136:
 819:../Dave/Generated/FREERTOS/tasks.c **** 
 820:../Dave/Generated/FREERTOS/tasks.c **** #endif /* configSUPPORT_DYNAMIC_ALLOCATION */
 821:../Dave/Generated/FREERTOS/tasks.c **** /*-----------------------------------------------------------*/
 822:../Dave/Generated/FREERTOS/tasks.c **** 
 823:../Dave/Generated/FREERTOS/tasks.c **** static void prvInitialiseNewTask( 	TaskFunction_t pxTaskCode,
 824:../Dave/Generated/FREERTOS/tasks.c **** 									const char * const pcName,		/*lint !e971 Unqualified char types are allowed for strings an
 825:../Dave/Generated/FREERTOS/tasks.c **** 									const uint32_t ulStackDepth,
 826:../Dave/Generated/FREERTOS/tasks.c **** 									void * const pvParameters,
 827:../Dave/Generated/FREERTOS/tasks.c **** 									UBaseType_t uxPriority,
 828:../Dave/Generated/FREERTOS/tasks.c **** 									TaskHandle_t * const pxCreatedTask,
 829:../Dave/Generated/FREERTOS/tasks.c **** 									TCB_t *pxNewTCB,
 830:../Dave/Generated/FREERTOS/tasks.c **** 									const MemoryRegion_t * const xRegions )
 831:../Dave/Generated/FREERTOS/tasks.c **** {
 262              	 .loc 1 831 0
 263              	 .cfi_startproc
 264              	 
 265              	 
 266 0000 80B5     	 push {r7,lr}
 267              	.LCFI5:
 268              	 .cfi_def_cfa_offset 8
 269              	 .cfi_offset 7,-8
 270              	 .cfi_offset 14,-4
 271 0002 88B0     	 sub sp,sp,#32
 272              	.LCFI6:
 273              	 .cfi_def_cfa_offset 40
 274 0004 00AF     	 add r7,sp,#0
 275              	.LCFI7:
 276              	 .cfi_def_cfa_register 7
 277 0006 F860     	 str r0,[r7,#12]
 278 0008 B960     	 str r1,[r7,#8]
 279 000a 7A60     	 str r2,[r7,#4]
 280 000c 3B60     	 str r3,[r7]
 832:../Dave/Generated/FREERTOS/tasks.c **** StackType_t *pxTopOfStack;
 833:../Dave/Generated/FREERTOS/tasks.c **** UBaseType_t x;
 834:../Dave/Generated/FREERTOS/tasks.c **** 
 835:../Dave/Generated/FREERTOS/tasks.c **** 	#if( portUSING_MPU_WRAPPERS == 1 )
 836:../Dave/Generated/FREERTOS/tasks.c **** 		/* Should the task be created in privileged mode? */
 837:../Dave/Generated/FREERTOS/tasks.c **** 		BaseType_t xRunPrivileged;
 838:../Dave/Generated/FREERTOS/tasks.c **** 		if( ( uxPriority & portPRIVILEGE_BIT ) != 0U )
 839:../Dave/Generated/FREERTOS/tasks.c **** 		{
 840:../Dave/Generated/FREERTOS/tasks.c **** 			xRunPrivileged = pdTRUE;
 841:../Dave/Generated/FREERTOS/tasks.c **** 		}
 842:../Dave/Generated/FREERTOS/tasks.c **** 		else
 843:../Dave/Generated/FREERTOS/tasks.c **** 		{
 844:../Dave/Generated/FREERTOS/tasks.c **** 			xRunPrivileged = pdFALSE;
 845:../Dave/Generated/FREERTOS/tasks.c **** 		}
 846:../Dave/Generated/FREERTOS/tasks.c **** 		uxPriority &= ~portPRIVILEGE_BIT;
 847:../Dave/Generated/FREERTOS/tasks.c **** 	#endif /* portUSING_MPU_WRAPPERS == 1 */
 848:../Dave/Generated/FREERTOS/tasks.c **** 
 849:../Dave/Generated/FREERTOS/tasks.c **** 	/* Avoid dependency on memset() if it is not required. */
 850:../Dave/Generated/FREERTOS/tasks.c **** 	#if( tskSET_NEW_STACKS_TO_KNOWN_VALUE == 1 )
 851:../Dave/Generated/FREERTOS/tasks.c **** 	{
 852:../Dave/Generated/FREERTOS/tasks.c **** 		/* Fill the stack with a known value to assist debugging. */
 853:../Dave/Generated/FREERTOS/tasks.c **** 		( void ) memset( pxNewTCB->pxStack, ( int ) tskSTACK_FILL_BYTE, ( size_t ) ulStackDepth * sizeof(
 281              	 .loc 1 853 0
 282 000e 3B6B     	 ldr r3,[r7,#48]
 283 0010 1A6B     	 ldr r2,[r3,#48]
 284 0012 7B68     	 ldr r3,[r7,#4]
 285 0014 9B00     	 lsls r3,r3,#2
 286 0016 1046     	 mov r0,r2
 287 0018 A521     	 movs r1,#165
 288 001a 1A46     	 mov r2,r3
 289 001c FFF7FEFF 	 bl memset
 854:../Dave/Generated/FREERTOS/tasks.c **** 	}
 855:../Dave/Generated/FREERTOS/tasks.c **** 	#endif /* tskSET_NEW_STACKS_TO_KNOWN_VALUE */
 856:../Dave/Generated/FREERTOS/tasks.c **** 
 857:../Dave/Generated/FREERTOS/tasks.c **** 	/* Calculate the top of stack address.  This depends on whether the stack
 858:../Dave/Generated/FREERTOS/tasks.c **** 	grows from high memory to low (as per the 80x86) or vice versa.
 859:../Dave/Generated/FREERTOS/tasks.c **** 	portSTACK_GROWTH is used to make the result positive or negative as required
 860:../Dave/Generated/FREERTOS/tasks.c **** 	by the port. */
 861:../Dave/Generated/FREERTOS/tasks.c **** 	#if( portSTACK_GROWTH < 0 )
 862:../Dave/Generated/FREERTOS/tasks.c **** 	{
 863:../Dave/Generated/FREERTOS/tasks.c **** 		pxTopOfStack = pxNewTCB->pxStack + ( ulStackDepth - ( uint32_t ) 1 );
 290              	 .loc 1 863 0
 291 0020 3B6B     	 ldr r3,[r7,#48]
 292 0022 1A6B     	 ldr r2,[r3,#48]
 293 0024 7B68     	 ldr r3,[r7,#4]
 294 0026 03F18043 	 add r3,r3,#1073741824
 295 002a 013B     	 subs r3,r3,#1
 296 002c 9B00     	 lsls r3,r3,#2
 297 002e 1344     	 add r3,r3,r2
 298 0030 BB61     	 str r3,[r7,#24]
 864:../Dave/Generated/FREERTOS/tasks.c **** 		pxTopOfStack = ( StackType_t * ) ( ( ( portPOINTER_SIZE_TYPE ) pxTopOfStack ) & ( ~( ( portPOINTE
 299              	 .loc 1 864 0
 300 0032 BB69     	 ldr r3,[r7,#24]
 301 0034 23F00703 	 bic r3,r3,#7
 302 0038 BB61     	 str r3,[r7,#24]
 865:../Dave/Generated/FREERTOS/tasks.c **** 
 866:../Dave/Generated/FREERTOS/tasks.c **** 		/* Check the alignment of the calculated top of stack is correct. */
 867:../Dave/Generated/FREERTOS/tasks.c **** 		configASSERT( ( ( ( portPOINTER_SIZE_TYPE ) pxTopOfStack & ( portPOINTER_SIZE_TYPE ) portBYTE_ALI
 303              	 .loc 1 867 0
 304 003a BB69     	 ldr r3,[r7,#24]
 305 003c 03F00703 	 and r3,r3,#7
 306 0040 002B     	 cmp r3,#0
 307 0042 09D0     	 beq .L10
 308              	.LBB112:
 309              	.LBB113:
 310              	 .file 2 "../Dave/Generated/FREERTOS/portable/GCC/portmacro.h"
   1:../Dave/Generated/FREERTOS/portable/GCC/portmacro.h **** /*
   2:../Dave/Generated/FREERTOS/portable/GCC/portmacro.h ****  * FreeRTOS Kernel V10.0.1
   3:../Dave/Generated/FREERTOS/portable/GCC/portmacro.h ****  * Copyright (C) 2017 Amazon.com, Inc. or its affiliates.  All Rights Reserved.
   4:../Dave/Generated/FREERTOS/portable/GCC/portmacro.h ****  *
   5:../Dave/Generated/FREERTOS/portable/GCC/portmacro.h ****  * Permission is hereby granted, free of charge, to any person obtaining a copy of
   6:../Dave/Generated/FREERTOS/portable/GCC/portmacro.h ****  * this software and associated documentation files (the "Software"), to deal in
   7:../Dave/Generated/FREERTOS/portable/GCC/portmacro.h ****  * the Software without restriction, including without limitation the rights to
   8:../Dave/Generated/FREERTOS/portable/GCC/portmacro.h ****  * use, copy, modify, merge, publish, distribute, sublicense, and/or sell copies of
   9:../Dave/Generated/FREERTOS/portable/GCC/portmacro.h ****  * the Software, and to permit persons to whom the Software is furnished to do so,
  10:../Dave/Generated/FREERTOS/portable/GCC/portmacro.h ****  * subject to the following conditions:
  11:../Dave/Generated/FREERTOS/portable/GCC/portmacro.h ****  *
  12:../Dave/Generated/FREERTOS/portable/GCC/portmacro.h ****  * The above copyright notice and this permission notice shall be included in all
  13:../Dave/Generated/FREERTOS/portable/GCC/portmacro.h ****  * copies or substantial portions of the Software.
  14:../Dave/Generated/FREERTOS/portable/GCC/portmacro.h ****  *
  15:../Dave/Generated/FREERTOS/portable/GCC/portmacro.h ****  * THE SOFTWARE IS PROVIDED "AS IS", WITHOUT WARRANTY OF ANY KIND, EXPRESS OR
  16:../Dave/Generated/FREERTOS/portable/GCC/portmacro.h ****  * IMPLIED, INCLUDING BUT NOT LIMITED TO THE WARRANTIES OF MERCHANTABILITY, FITNESS
  17:../Dave/Generated/FREERTOS/portable/GCC/portmacro.h ****  * FOR A PARTICULAR PURPOSE AND NONINFRINGEMENT. IN NO EVENT SHALL THE AUTHORS OR
  18:../Dave/Generated/FREERTOS/portable/GCC/portmacro.h ****  * COPYRIGHT HOLDERS BE LIABLE FOR ANY CLAIM, DAMAGES OR OTHER LIABILITY, WHETHER
  19:../Dave/Generated/FREERTOS/portable/GCC/portmacro.h ****  * IN AN ACTION OF CONTRACT, TORT OR OTHERWISE, ARISING FROM, OUT OF OR IN
  20:../Dave/Generated/FREERTOS/portable/GCC/portmacro.h ****  * CONNECTION WITH THE SOFTWARE OR THE USE OR OTHER DEALINGS IN THE SOFTWARE.
  21:../Dave/Generated/FREERTOS/portable/GCC/portmacro.h ****  *
  22:../Dave/Generated/FREERTOS/portable/GCC/portmacro.h ****  * http://www.FreeRTOS.org
  23:../Dave/Generated/FREERTOS/portable/GCC/portmacro.h ****  * http://aws.amazon.com/freertos
  24:../Dave/Generated/FREERTOS/portable/GCC/portmacro.h ****  *
  25:../Dave/Generated/FREERTOS/portable/GCC/portmacro.h ****  * 1 tab == 4 spaces!
  26:../Dave/Generated/FREERTOS/portable/GCC/portmacro.h ****  */
  27:../Dave/Generated/FREERTOS/portable/GCC/portmacro.h **** 
  28:../Dave/Generated/FREERTOS/portable/GCC/portmacro.h **** 
  29:../Dave/Generated/FREERTOS/portable/GCC/portmacro.h **** #ifndef PORTMACRO_H
  30:../Dave/Generated/FREERTOS/portable/GCC/portmacro.h **** #define PORTMACRO_H
  31:../Dave/Generated/FREERTOS/portable/GCC/portmacro.h **** 
  32:../Dave/Generated/FREERTOS/portable/GCC/portmacro.h **** #ifdef __cplusplus
  33:../Dave/Generated/FREERTOS/portable/GCC/portmacro.h **** extern "C" {
  34:../Dave/Generated/FREERTOS/portable/GCC/portmacro.h **** #endif
  35:../Dave/Generated/FREERTOS/portable/GCC/portmacro.h **** 
  36:../Dave/Generated/FREERTOS/portable/GCC/portmacro.h **** /*-----------------------------------------------------------
  37:../Dave/Generated/FREERTOS/portable/GCC/portmacro.h ****  * Port specific definitions.
  38:../Dave/Generated/FREERTOS/portable/GCC/portmacro.h ****  *
  39:../Dave/Generated/FREERTOS/portable/GCC/portmacro.h ****  * The settings in this file configure FreeRTOS correctly for the
  40:../Dave/Generated/FREERTOS/portable/GCC/portmacro.h ****  * given hardware and compiler.
  41:../Dave/Generated/FREERTOS/portable/GCC/portmacro.h ****  *
  42:../Dave/Generated/FREERTOS/portable/GCC/portmacro.h ****  * These settings should not be altered.
  43:../Dave/Generated/FREERTOS/portable/GCC/portmacro.h ****  *-----------------------------------------------------------
  44:../Dave/Generated/FREERTOS/portable/GCC/portmacro.h ****  */
  45:../Dave/Generated/FREERTOS/portable/GCC/portmacro.h **** 
  46:../Dave/Generated/FREERTOS/portable/GCC/portmacro.h **** /* Type definitions. */
  47:../Dave/Generated/FREERTOS/portable/GCC/portmacro.h **** #define portCHAR		char
  48:../Dave/Generated/FREERTOS/portable/GCC/portmacro.h **** #define portFLOAT		float
  49:../Dave/Generated/FREERTOS/portable/GCC/portmacro.h **** #define portDOUBLE		double
  50:../Dave/Generated/FREERTOS/portable/GCC/portmacro.h **** #define portLONG		long
  51:../Dave/Generated/FREERTOS/portable/GCC/portmacro.h **** #define portSHORT		short
  52:../Dave/Generated/FREERTOS/portable/GCC/portmacro.h **** #define portSTACK_TYPE	uint32_t
  53:../Dave/Generated/FREERTOS/portable/GCC/portmacro.h **** #define portBASE_TYPE	long
  54:../Dave/Generated/FREERTOS/portable/GCC/portmacro.h **** 
  55:../Dave/Generated/FREERTOS/portable/GCC/portmacro.h **** typedef portSTACK_TYPE StackType_t;
  56:../Dave/Generated/FREERTOS/portable/GCC/portmacro.h **** typedef long BaseType_t;
  57:../Dave/Generated/FREERTOS/portable/GCC/portmacro.h **** typedef unsigned long UBaseType_t;
  58:../Dave/Generated/FREERTOS/portable/GCC/portmacro.h **** 
  59:../Dave/Generated/FREERTOS/portable/GCC/portmacro.h **** #if( configUSE_16_BIT_TICKS == 1 )
  60:../Dave/Generated/FREERTOS/portable/GCC/portmacro.h **** 	typedef uint16_t TickType_t;
  61:../Dave/Generated/FREERTOS/portable/GCC/portmacro.h **** 	#define portMAX_DELAY ( TickType_t ) 0xffff
  62:../Dave/Generated/FREERTOS/portable/GCC/portmacro.h **** #else
  63:../Dave/Generated/FREERTOS/portable/GCC/portmacro.h **** 	typedef uint32_t TickType_t;
  64:../Dave/Generated/FREERTOS/portable/GCC/portmacro.h **** 	#define portMAX_DELAY ( TickType_t ) 0xffffffffUL
  65:../Dave/Generated/FREERTOS/portable/GCC/portmacro.h **** 
  66:../Dave/Generated/FREERTOS/portable/GCC/portmacro.h **** 	/* 32-bit tick type on a 32-bit architecture, so reads of the tick count do
  67:../Dave/Generated/FREERTOS/portable/GCC/portmacro.h **** 	not need to be guarded with a critical section. */
  68:../Dave/Generated/FREERTOS/portable/GCC/portmacro.h **** 	#define portTICK_TYPE_IS_ATOMIC 1
  69:../Dave/Generated/FREERTOS/portable/GCC/portmacro.h **** #endif
  70:../Dave/Generated/FREERTOS/portable/GCC/portmacro.h **** /*-----------------------------------------------------------*/
  71:../Dave/Generated/FREERTOS/portable/GCC/portmacro.h **** 
  72:../Dave/Generated/FREERTOS/portable/GCC/portmacro.h **** /* Architecture specifics. */
  73:../Dave/Generated/FREERTOS/portable/GCC/portmacro.h **** #define portSTACK_GROWTH			( -1 )
  74:../Dave/Generated/FREERTOS/portable/GCC/portmacro.h **** #define portTICK_PERIOD_MS			( ( TickType_t ) 1000 / configTICK_RATE_HZ )
  75:../Dave/Generated/FREERTOS/portable/GCC/portmacro.h **** #define portBYTE_ALIGNMENT			8
  76:../Dave/Generated/FREERTOS/portable/GCC/portmacro.h **** /*-----------------------------------------------------------*/
  77:../Dave/Generated/FREERTOS/portable/GCC/portmacro.h **** 
  78:../Dave/Generated/FREERTOS/portable/GCC/portmacro.h **** /* Scheduler utilities. */
  79:../Dave/Generated/FREERTOS/portable/GCC/portmacro.h **** #define portYIELD() 															\
  80:../Dave/Generated/FREERTOS/portable/GCC/portmacro.h **** {																				\
  81:../Dave/Generated/FREERTOS/portable/GCC/portmacro.h **** 	/* Set a PendSV to request a context switch. */								\
  82:../Dave/Generated/FREERTOS/portable/GCC/portmacro.h **** 	portNVIC_INT_CTRL_REG = portNVIC_PENDSVSET_BIT;								\
  83:../Dave/Generated/FREERTOS/portable/GCC/portmacro.h **** 																				\
  84:../Dave/Generated/FREERTOS/portable/GCC/portmacro.h **** 	/* Barriers are normally not required but do ensure the code is completely	\
  85:../Dave/Generated/FREERTOS/portable/GCC/portmacro.h **** 	within the specified behaviour for the architecture. */						\
  86:../Dave/Generated/FREERTOS/portable/GCC/portmacro.h **** 	__asm volatile( "dsb" ::: "memory" );										\
  87:../Dave/Generated/FREERTOS/portable/GCC/portmacro.h **** 	__asm volatile( "isb" );													\
  88:../Dave/Generated/FREERTOS/portable/GCC/portmacro.h **** }
  89:../Dave/Generated/FREERTOS/portable/GCC/portmacro.h **** 
  90:../Dave/Generated/FREERTOS/portable/GCC/portmacro.h **** #define portNVIC_INT_CTRL_REG		( * ( ( volatile uint32_t * ) 0xe000ed04 ) )
  91:../Dave/Generated/FREERTOS/portable/GCC/portmacro.h **** #define portNVIC_PENDSVSET_BIT		( 1UL << 28UL )
  92:../Dave/Generated/FREERTOS/portable/GCC/portmacro.h **** #define portEND_SWITCHING_ISR( xSwitchRequired ) if( xSwitchRequired != pdFALSE ) portYIELD()
  93:../Dave/Generated/FREERTOS/portable/GCC/portmacro.h **** #define portYIELD_FROM_ISR( x ) portEND_SWITCHING_ISR( x )
  94:../Dave/Generated/FREERTOS/portable/GCC/portmacro.h **** /*-----------------------------------------------------------*/
  95:../Dave/Generated/FREERTOS/portable/GCC/portmacro.h **** 
  96:../Dave/Generated/FREERTOS/portable/GCC/portmacro.h **** /* Critical section management. */
  97:../Dave/Generated/FREERTOS/portable/GCC/portmacro.h **** extern void vPortEnterCritical( void );
  98:../Dave/Generated/FREERTOS/portable/GCC/portmacro.h **** extern void vPortExitCritical( void );
  99:../Dave/Generated/FREERTOS/portable/GCC/portmacro.h **** #define portSET_INTERRUPT_MASK_FROM_ISR()		ulPortRaiseBASEPRI()
 100:../Dave/Generated/FREERTOS/portable/GCC/portmacro.h **** #define portCLEAR_INTERRUPT_MASK_FROM_ISR(x)	vPortSetBASEPRI(x)
 101:../Dave/Generated/FREERTOS/portable/GCC/portmacro.h **** #define portDISABLE_INTERRUPTS()				vPortRaiseBASEPRI()
 102:../Dave/Generated/FREERTOS/portable/GCC/portmacro.h **** #define portENABLE_INTERRUPTS()					vPortSetBASEPRI(0)
 103:../Dave/Generated/FREERTOS/portable/GCC/portmacro.h **** #define portENTER_CRITICAL()					vPortEnterCritical()
 104:../Dave/Generated/FREERTOS/portable/GCC/portmacro.h **** #define portEXIT_CRITICAL()						vPortExitCritical()
 105:../Dave/Generated/FREERTOS/portable/GCC/portmacro.h **** 
 106:../Dave/Generated/FREERTOS/portable/GCC/portmacro.h **** /*-----------------------------------------------------------*/
 107:../Dave/Generated/FREERTOS/portable/GCC/portmacro.h **** 
 108:../Dave/Generated/FREERTOS/portable/GCC/portmacro.h **** /* Task function macros as described on the FreeRTOS.org WEB site.  These are
 109:../Dave/Generated/FREERTOS/portable/GCC/portmacro.h **** not necessary for to use this port.  They are defined so the common demo files
 110:../Dave/Generated/FREERTOS/portable/GCC/portmacro.h **** (which build with all the ports) will build. */
 111:../Dave/Generated/FREERTOS/portable/GCC/portmacro.h **** #define portTASK_FUNCTION_PROTO( vFunction, pvParameters ) void vFunction( void *pvParameters )
 112:../Dave/Generated/FREERTOS/portable/GCC/portmacro.h **** #define portTASK_FUNCTION( vFunction, pvParameters ) void vFunction( void *pvParameters )
 113:../Dave/Generated/FREERTOS/portable/GCC/portmacro.h **** /*-----------------------------------------------------------*/
 114:../Dave/Generated/FREERTOS/portable/GCC/portmacro.h **** 
 115:../Dave/Generated/FREERTOS/portable/GCC/portmacro.h **** /* Tickless idle/low power functionality. */
 116:../Dave/Generated/FREERTOS/portable/GCC/portmacro.h **** #ifndef portSUPPRESS_TICKS_AND_SLEEP
 117:../Dave/Generated/FREERTOS/portable/GCC/portmacro.h **** 	extern void vPortSuppressTicksAndSleep( TickType_t xExpectedIdleTime );
 118:../Dave/Generated/FREERTOS/portable/GCC/portmacro.h **** 	#define portSUPPRESS_TICKS_AND_SLEEP( xExpectedIdleTime ) vPortSuppressTicksAndSleep( xExpectedIdl
 119:../Dave/Generated/FREERTOS/portable/GCC/portmacro.h **** #endif
 120:../Dave/Generated/FREERTOS/portable/GCC/portmacro.h **** /*-----------------------------------------------------------*/
 121:../Dave/Generated/FREERTOS/portable/GCC/portmacro.h **** 
 122:../Dave/Generated/FREERTOS/portable/GCC/portmacro.h **** /* Architecture specific optimisations. */
 123:../Dave/Generated/FREERTOS/portable/GCC/portmacro.h **** #ifndef configUSE_PORT_OPTIMISED_TASK_SELECTION
 124:../Dave/Generated/FREERTOS/portable/GCC/portmacro.h **** 	#define configUSE_PORT_OPTIMISED_TASK_SELECTION 1
 125:../Dave/Generated/FREERTOS/portable/GCC/portmacro.h **** #endif
 126:../Dave/Generated/FREERTOS/portable/GCC/portmacro.h **** 
 127:../Dave/Generated/FREERTOS/portable/GCC/portmacro.h **** #if configUSE_PORT_OPTIMISED_TASK_SELECTION == 1
 128:../Dave/Generated/FREERTOS/portable/GCC/portmacro.h **** 
 129:../Dave/Generated/FREERTOS/portable/GCC/portmacro.h **** 	/* Generic helper function. */
 130:../Dave/Generated/FREERTOS/portable/GCC/portmacro.h **** 	__attribute__( ( always_inline ) ) static inline uint8_t ucPortCountLeadingZeros( uint32_t ulBitma
 131:../Dave/Generated/FREERTOS/portable/GCC/portmacro.h **** 	{
 132:../Dave/Generated/FREERTOS/portable/GCC/portmacro.h **** 	uint8_t ucReturn;
 133:../Dave/Generated/FREERTOS/portable/GCC/portmacro.h **** 
 134:../Dave/Generated/FREERTOS/portable/GCC/portmacro.h **** 		__asm volatile ( "clz %0, %1" : "=r" ( ucReturn ) : "r" ( ulBitmap ) : "memory" );
 135:../Dave/Generated/FREERTOS/portable/GCC/portmacro.h **** 		return ucReturn;
 136:../Dave/Generated/FREERTOS/portable/GCC/portmacro.h **** 	}
 137:../Dave/Generated/FREERTOS/portable/GCC/portmacro.h **** 
 138:../Dave/Generated/FREERTOS/portable/GCC/portmacro.h **** 	/* Check the configuration. */
 139:../Dave/Generated/FREERTOS/portable/GCC/portmacro.h **** 	#if( configMAX_PRIORITIES > 32 )
 140:../Dave/Generated/FREERTOS/portable/GCC/portmacro.h **** 		#error configUSE_PORT_OPTIMISED_TASK_SELECTION can only be set to 1 when configMAX_PRIORITIES is 
 141:../Dave/Generated/FREERTOS/portable/GCC/portmacro.h **** 	#endif
 142:../Dave/Generated/FREERTOS/portable/GCC/portmacro.h **** 
 143:../Dave/Generated/FREERTOS/portable/GCC/portmacro.h **** 	/* Store/clear the ready priorities in a bit map. */
 144:../Dave/Generated/FREERTOS/portable/GCC/portmacro.h **** 	#define portRECORD_READY_PRIORITY( uxPriority, uxReadyPriorities ) ( uxReadyPriorities ) |= ( 1UL 
 145:../Dave/Generated/FREERTOS/portable/GCC/portmacro.h **** 	#define portRESET_READY_PRIORITY( uxPriority, uxReadyPriorities ) ( uxReadyPriorities ) &= ~( 1UL 
 146:../Dave/Generated/FREERTOS/portable/GCC/portmacro.h **** 
 147:../Dave/Generated/FREERTOS/portable/GCC/portmacro.h **** 	/*-----------------------------------------------------------*/
 148:../Dave/Generated/FREERTOS/portable/GCC/portmacro.h **** 
 149:../Dave/Generated/FREERTOS/portable/GCC/portmacro.h **** 	#define portGET_HIGHEST_PRIORITY( uxTopPriority, uxReadyPriorities ) uxTopPriority = ( 31UL - ( ui
 150:../Dave/Generated/FREERTOS/portable/GCC/portmacro.h **** 
 151:../Dave/Generated/FREERTOS/portable/GCC/portmacro.h **** #endif /* configUSE_PORT_OPTIMISED_TASK_SELECTION */
 152:../Dave/Generated/FREERTOS/portable/GCC/portmacro.h **** 
 153:../Dave/Generated/FREERTOS/portable/GCC/portmacro.h **** /*-----------------------------------------------------------*/
 154:../Dave/Generated/FREERTOS/portable/GCC/portmacro.h **** 
 155:../Dave/Generated/FREERTOS/portable/GCC/portmacro.h **** #ifdef configASSERT
 156:../Dave/Generated/FREERTOS/portable/GCC/portmacro.h **** 	void vPortValidateInterruptPriority( void );
 157:../Dave/Generated/FREERTOS/portable/GCC/portmacro.h **** 	#define portASSERT_IF_INTERRUPT_PRIORITY_INVALID() 	vPortValidateInterruptPriority()
 158:../Dave/Generated/FREERTOS/portable/GCC/portmacro.h **** #endif
 159:../Dave/Generated/FREERTOS/portable/GCC/portmacro.h **** 
 160:../Dave/Generated/FREERTOS/portable/GCC/portmacro.h **** /* portNOP() is not required by this port. */
 161:../Dave/Generated/FREERTOS/portable/GCC/portmacro.h **** #define portNOP()
 162:../Dave/Generated/FREERTOS/portable/GCC/portmacro.h **** 
 163:../Dave/Generated/FREERTOS/portable/GCC/portmacro.h **** #define portINLINE	__inline
 164:../Dave/Generated/FREERTOS/portable/GCC/portmacro.h **** 
 165:../Dave/Generated/FREERTOS/portable/GCC/portmacro.h **** #ifndef portFORCE_INLINE
 166:../Dave/Generated/FREERTOS/portable/GCC/portmacro.h **** 	#define portFORCE_INLINE inline __attribute__(( always_inline))
 167:../Dave/Generated/FREERTOS/portable/GCC/portmacro.h **** #endif
 168:../Dave/Generated/FREERTOS/portable/GCC/portmacro.h **** 
 169:../Dave/Generated/FREERTOS/portable/GCC/portmacro.h **** portFORCE_INLINE static BaseType_t xPortIsInsideInterrupt( void )
 170:../Dave/Generated/FREERTOS/portable/GCC/portmacro.h **** {
 171:../Dave/Generated/FREERTOS/portable/GCC/portmacro.h **** uint32_t ulCurrentInterrupt;
 172:../Dave/Generated/FREERTOS/portable/GCC/portmacro.h **** BaseType_t xReturn;
 173:../Dave/Generated/FREERTOS/portable/GCC/portmacro.h **** 
 174:../Dave/Generated/FREERTOS/portable/GCC/portmacro.h **** 	/* Obtain the number of the currently executing interrupt. */
 175:../Dave/Generated/FREERTOS/portable/GCC/portmacro.h **** 	__asm volatile( "mrs %0, ipsr" : "=r"( ulCurrentInterrupt ) :: "memory" );
 176:../Dave/Generated/FREERTOS/portable/GCC/portmacro.h **** 
 177:../Dave/Generated/FREERTOS/portable/GCC/portmacro.h **** 	if( ulCurrentInterrupt == 0 )
 178:../Dave/Generated/FREERTOS/portable/GCC/portmacro.h **** 	{
 179:../Dave/Generated/FREERTOS/portable/GCC/portmacro.h **** 		xReturn = pdFALSE;
 180:../Dave/Generated/FREERTOS/portable/GCC/portmacro.h **** 	}
 181:../Dave/Generated/FREERTOS/portable/GCC/portmacro.h **** 	else
 182:../Dave/Generated/FREERTOS/portable/GCC/portmacro.h **** 	{
 183:../Dave/Generated/FREERTOS/portable/GCC/portmacro.h **** 		xReturn = pdTRUE;
 184:../Dave/Generated/FREERTOS/portable/GCC/portmacro.h **** 	}
 185:../Dave/Generated/FREERTOS/portable/GCC/portmacro.h **** 
 186:../Dave/Generated/FREERTOS/portable/GCC/portmacro.h **** 	return xReturn;
 187:../Dave/Generated/FREERTOS/portable/GCC/portmacro.h **** }
 188:../Dave/Generated/FREERTOS/portable/GCC/portmacro.h **** 
 189:../Dave/Generated/FREERTOS/portable/GCC/portmacro.h **** /*-----------------------------------------------------------*/
 190:../Dave/Generated/FREERTOS/portable/GCC/portmacro.h **** 
 191:../Dave/Generated/FREERTOS/portable/GCC/portmacro.h **** portFORCE_INLINE static void vPortRaiseBASEPRI( void )
 192:../Dave/Generated/FREERTOS/portable/GCC/portmacro.h **** {
 193:../Dave/Generated/FREERTOS/portable/GCC/portmacro.h **** uint32_t ulNewBASEPRI;
 194:../Dave/Generated/FREERTOS/portable/GCC/portmacro.h **** 
 195:../Dave/Generated/FREERTOS/portable/GCC/portmacro.h **** 	__asm volatile
 311              	 .loc 2 195 0 discriminator 1
 312              	
 313 0044 4FF0FC03 	 mov r3,#252
 314 0048 83F31188 	 msr basepri,r3
 315 004c BFF36F8F 	 isb 
 316 0050 BFF34F8F 	 dsb 
 317              	
 318              	
 319              	 .thumb
 320 0054 7B61     	 str r3,[r7,#20]
 321              	.L11:
 322              	.LBE113:
 323              	.LBE112:
 324              	 .loc 1 867 0 discriminator 1
 325 0056 FEE7     	 b .L11
 326              	.L10:
 868:../Dave/Generated/FREERTOS/tasks.c **** 
 869:../Dave/Generated/FREERTOS/tasks.c **** 		#if( configRECORD_STACK_HIGH_ADDRESS == 1 )
 870:../Dave/Generated/FREERTOS/tasks.c **** 		{
 871:../Dave/Generated/FREERTOS/tasks.c **** 			/* Also record the stack's high address, which may assist
 872:../Dave/Generated/FREERTOS/tasks.c **** 			debugging. */
 873:../Dave/Generated/FREERTOS/tasks.c **** 			pxNewTCB->pxEndOfStack = pxTopOfStack;
 874:../Dave/Generated/FREERTOS/tasks.c **** 		}
 875:../Dave/Generated/FREERTOS/tasks.c **** 		#endif /* configRECORD_STACK_HIGH_ADDRESS */
 876:../Dave/Generated/FREERTOS/tasks.c **** 	}
 877:../Dave/Generated/FREERTOS/tasks.c **** 	#else /* portSTACK_GROWTH */
 878:../Dave/Generated/FREERTOS/tasks.c **** 	{
 879:../Dave/Generated/FREERTOS/tasks.c **** 		pxTopOfStack = pxNewTCB->pxStack;
 880:../Dave/Generated/FREERTOS/tasks.c **** 
 881:../Dave/Generated/FREERTOS/tasks.c **** 		/* Check the alignment of the stack buffer is correct. */
 882:../Dave/Generated/FREERTOS/tasks.c **** 		configASSERT( ( ( ( portPOINTER_SIZE_TYPE ) pxNewTCB->pxStack & ( portPOINTER_SIZE_TYPE ) portBYT
 883:../Dave/Generated/FREERTOS/tasks.c **** 
 884:../Dave/Generated/FREERTOS/tasks.c **** 		/* The other extreme of the stack space is required if stack checking is
 885:../Dave/Generated/FREERTOS/tasks.c **** 		performed. */
 886:../Dave/Generated/FREERTOS/tasks.c **** 		pxNewTCB->pxEndOfStack = pxNewTCB->pxStack + ( ulStackDepth - ( uint32_t ) 1 );
 887:../Dave/Generated/FREERTOS/tasks.c **** 	}
 888:../Dave/Generated/FREERTOS/tasks.c **** 	#endif /* portSTACK_GROWTH */
 889:../Dave/Generated/FREERTOS/tasks.c **** 
 890:../Dave/Generated/FREERTOS/tasks.c **** 	/* Store the task name in the TCB. */
 891:../Dave/Generated/FREERTOS/tasks.c **** 	for( x = ( UBaseType_t ) 0; x < ( UBaseType_t ) configMAX_TASK_NAME_LEN; x++ )
 327              	 .loc 1 891 0
 328 0058 0023     	 movs r3,#0
 329 005a FB61     	 str r3,[r7,#28]
 330 005c 13E0     	 b .L12
 331              	.L15:
 892:../Dave/Generated/FREERTOS/tasks.c **** 	{
 893:../Dave/Generated/FREERTOS/tasks.c **** 		pxNewTCB->pcTaskName[ x ] = pcName[ x ];
 332              	 .loc 1 893 0
 333 005e BA68     	 ldr r2,[r7,#8]
 334 0060 FB69     	 ldr r3,[r7,#28]
 335 0062 1344     	 add r3,r3,r2
 336 0064 1978     	 ldrb r1,[r3]
 337 0066 3A6B     	 ldr r2,[r7,#48]
 338 0068 FB69     	 ldr r3,[r7,#28]
 339 006a 1344     	 add r3,r3,r2
 340 006c 3033     	 adds r3,r3,#48
 341 006e 0A46     	 mov r2,r1
 342 0070 1A71     	 strb r2,[r3,#4]
 894:../Dave/Generated/FREERTOS/tasks.c **** 
 895:../Dave/Generated/FREERTOS/tasks.c **** 		/* Don't copy all configMAX_TASK_NAME_LEN if the string is shorter than
 896:../Dave/Generated/FREERTOS/tasks.c **** 		configMAX_TASK_NAME_LEN characters just in case the memory after the
 897:../Dave/Generated/FREERTOS/tasks.c **** 		string is not accessible (extremely unlikely). */
 898:../Dave/Generated/FREERTOS/tasks.c **** 		if( pcName[ x ] == 0x00 )
 343              	 .loc 1 898 0
 344 0072 BA68     	 ldr r2,[r7,#8]
 345 0074 FB69     	 ldr r3,[r7,#28]
 346 0076 1344     	 add r3,r3,r2
 347 0078 1B78     	 ldrb r3,[r3]
 348 007a 002B     	 cmp r3,#0
 349 007c 00D1     	 bne .L13
 899:../Dave/Generated/FREERTOS/tasks.c **** 		{
 900:../Dave/Generated/FREERTOS/tasks.c **** 			break;
 350              	 .loc 1 900 0
 351 007e 05E0     	 b .L14
 352              	.L13:
 891:../Dave/Generated/FREERTOS/tasks.c **** 	{
 353              	 .loc 1 891 0 discriminator 2
 354 0080 FB69     	 ldr r3,[r7,#28]
 355 0082 0133     	 adds r3,r3,#1
 356 0084 FB61     	 str r3,[r7,#28]
 357              	.L12:
 891:../Dave/Generated/FREERTOS/tasks.c **** 	{
 358              	 .loc 1 891 0 is_stmt 0 discriminator 1
 359 0086 FB69     	 ldr r3,[r7,#28]
 360 0088 0F2B     	 cmp r3,#15
 361 008a E8D9     	 bls .L15
 362              	.L14:
 901:../Dave/Generated/FREERTOS/tasks.c **** 		}
 902:../Dave/Generated/FREERTOS/tasks.c **** 		else
 903:../Dave/Generated/FREERTOS/tasks.c **** 		{
 904:../Dave/Generated/FREERTOS/tasks.c **** 			mtCOVERAGE_TEST_MARKER();
 905:../Dave/Generated/FREERTOS/tasks.c **** 		}
 906:../Dave/Generated/FREERTOS/tasks.c **** 	}
 907:../Dave/Generated/FREERTOS/tasks.c **** 
 908:../Dave/Generated/FREERTOS/tasks.c **** 	/* Ensure the name string is terminated in the case that the string length
 909:../Dave/Generated/FREERTOS/tasks.c **** 	was greater or equal to configMAX_TASK_NAME_LEN. */
 910:../Dave/Generated/FREERTOS/tasks.c **** 	pxNewTCB->pcTaskName[ configMAX_TASK_NAME_LEN - 1 ] = '\0';
 363              	 .loc 1 910 0 is_stmt 1
 364 008c 3B6B     	 ldr r3,[r7,#48]
 365 008e 0022     	 movs r2,#0
 366 0090 83F84320 	 strb r2,[r3,#67]
 911:../Dave/Generated/FREERTOS/tasks.c **** 
 912:../Dave/Generated/FREERTOS/tasks.c **** 	/* This is used as an array index so must ensure it's not too large.  First
 913:../Dave/Generated/FREERTOS/tasks.c **** 	remove the privilege bit if one is present. */
 914:../Dave/Generated/FREERTOS/tasks.c **** 	if( uxPriority >= ( UBaseType_t ) configMAX_PRIORITIES )
 367              	 .loc 1 914 0
 368 0094 BB6A     	 ldr r3,[r7,#40]
 369 0096 042B     	 cmp r3,#4
 370 0098 01D9     	 bls .L16
 915:../Dave/Generated/FREERTOS/tasks.c **** 	{
 916:../Dave/Generated/FREERTOS/tasks.c **** 		uxPriority = ( UBaseType_t ) configMAX_PRIORITIES - ( UBaseType_t ) 1U;
 371              	 .loc 1 916 0
 372 009a 0423     	 movs r3,#4
 373 009c BB62     	 str r3,[r7,#40]
 374              	.L16:
 917:../Dave/Generated/FREERTOS/tasks.c **** 	}
 918:../Dave/Generated/FREERTOS/tasks.c **** 	else
 919:../Dave/Generated/FREERTOS/tasks.c **** 	{
 920:../Dave/Generated/FREERTOS/tasks.c **** 		mtCOVERAGE_TEST_MARKER();
 921:../Dave/Generated/FREERTOS/tasks.c **** 	}
 922:../Dave/Generated/FREERTOS/tasks.c **** 
 923:../Dave/Generated/FREERTOS/tasks.c **** 	pxNewTCB->uxPriority = uxPriority;
 375              	 .loc 1 923 0
 376 009e 3B6B     	 ldr r3,[r7,#48]
 377 00a0 BA6A     	 ldr r2,[r7,#40]
 378 00a2 DA62     	 str r2,[r3,#44]
 924:../Dave/Generated/FREERTOS/tasks.c **** 	#if ( configUSE_MUTEXES == 1 )
 925:../Dave/Generated/FREERTOS/tasks.c **** 	{
 926:../Dave/Generated/FREERTOS/tasks.c **** 		pxNewTCB->uxBasePriority = uxPriority;
 379              	 .loc 1 926 0
 380 00a4 3B6B     	 ldr r3,[r7,#48]
 381 00a6 BA6A     	 ldr r2,[r7,#40]
 382 00a8 DA64     	 str r2,[r3,#76]
 927:../Dave/Generated/FREERTOS/tasks.c **** 		pxNewTCB->uxMutexesHeld = 0;
 383              	 .loc 1 927 0
 384 00aa 3B6B     	 ldr r3,[r7,#48]
 385 00ac 0022     	 movs r2,#0
 386 00ae 1A65     	 str r2,[r3,#80]
 928:../Dave/Generated/FREERTOS/tasks.c **** 	}
 929:../Dave/Generated/FREERTOS/tasks.c **** 	#endif /* configUSE_MUTEXES */
 930:../Dave/Generated/FREERTOS/tasks.c **** 
 931:../Dave/Generated/FREERTOS/tasks.c **** 	vListInitialiseItem( &( pxNewTCB->xStateListItem ) );
 387              	 .loc 1 931 0
 388 00b0 3B6B     	 ldr r3,[r7,#48]
 389 00b2 0433     	 adds r3,r3,#4
 390 00b4 1846     	 mov r0,r3
 391 00b6 FFF7FEFF 	 bl vListInitialiseItem
 932:../Dave/Generated/FREERTOS/tasks.c **** 	vListInitialiseItem( &( pxNewTCB->xEventListItem ) );
 392              	 .loc 1 932 0
 393 00ba 3B6B     	 ldr r3,[r7,#48]
 394 00bc 1833     	 adds r3,r3,#24
 395 00be 1846     	 mov r0,r3
 396 00c0 FFF7FEFF 	 bl vListInitialiseItem
 933:../Dave/Generated/FREERTOS/tasks.c **** 
 934:../Dave/Generated/FREERTOS/tasks.c **** 	/* Set the pxNewTCB as a link back from the ListItem_t.  This is so we can get
 935:../Dave/Generated/FREERTOS/tasks.c **** 	back to	the containing TCB from a generic item in a list. */
 936:../Dave/Generated/FREERTOS/tasks.c **** 	listSET_LIST_ITEM_OWNER( &( pxNewTCB->xStateListItem ), pxNewTCB );
 397              	 .loc 1 936 0
 398 00c4 3B6B     	 ldr r3,[r7,#48]
 399 00c6 3A6B     	 ldr r2,[r7,#48]
 400 00c8 1A61     	 str r2,[r3,#16]
 937:../Dave/Generated/FREERTOS/tasks.c **** 
 938:../Dave/Generated/FREERTOS/tasks.c **** 	/* Event lists are always in priority order. */
 939:../Dave/Generated/FREERTOS/tasks.c **** 	listSET_LIST_ITEM_VALUE( &( pxNewTCB->xEventListItem ), ( TickType_t ) configMAX_PRIORITIES - ( Ti
 401              	 .loc 1 939 0
 402 00ca BB6A     	 ldr r3,[r7,#40]
 403 00cc C3F10502 	 rsb r2,r3,#5
 404 00d0 3B6B     	 ldr r3,[r7,#48]
 405 00d2 9A61     	 str r2,[r3,#24]
 940:../Dave/Generated/FREERTOS/tasks.c **** 	listSET_LIST_ITEM_OWNER( &( pxNewTCB->xEventListItem ), pxNewTCB );
 406              	 .loc 1 940 0
 407 00d4 3B6B     	 ldr r3,[r7,#48]
 408 00d6 3A6B     	 ldr r2,[r7,#48]
 409 00d8 5A62     	 str r2,[r3,#36]
 941:../Dave/Generated/FREERTOS/tasks.c **** 
 942:../Dave/Generated/FREERTOS/tasks.c **** 	#if ( portCRITICAL_NESTING_IN_TCB == 1 )
 943:../Dave/Generated/FREERTOS/tasks.c **** 	{
 944:../Dave/Generated/FREERTOS/tasks.c **** 		pxNewTCB->uxCriticalNesting = ( UBaseType_t ) 0U;
 945:../Dave/Generated/FREERTOS/tasks.c **** 	}
 946:../Dave/Generated/FREERTOS/tasks.c **** 	#endif /* portCRITICAL_NESTING_IN_TCB */
 947:../Dave/Generated/FREERTOS/tasks.c **** 
 948:../Dave/Generated/FREERTOS/tasks.c **** 	#if ( configUSE_APPLICATION_TASK_TAG == 1 )
 949:../Dave/Generated/FREERTOS/tasks.c **** 	{
 950:../Dave/Generated/FREERTOS/tasks.c **** 		pxNewTCB->pxTaskTag = NULL;
 951:../Dave/Generated/FREERTOS/tasks.c **** 	}
 952:../Dave/Generated/FREERTOS/tasks.c **** 	#endif /* configUSE_APPLICATION_TASK_TAG */
 953:../Dave/Generated/FREERTOS/tasks.c **** 
 954:../Dave/Generated/FREERTOS/tasks.c **** 	#if ( configGENERATE_RUN_TIME_STATS == 1 )
 955:../Dave/Generated/FREERTOS/tasks.c **** 	{
 956:../Dave/Generated/FREERTOS/tasks.c **** 		pxNewTCB->ulRunTimeCounter = 0UL;
 957:../Dave/Generated/FREERTOS/tasks.c **** 	}
 958:../Dave/Generated/FREERTOS/tasks.c **** 	#endif /* configGENERATE_RUN_TIME_STATS */
 959:../Dave/Generated/FREERTOS/tasks.c **** 
 960:../Dave/Generated/FREERTOS/tasks.c **** 	#if ( portUSING_MPU_WRAPPERS == 1 )
 961:../Dave/Generated/FREERTOS/tasks.c **** 	{
 962:../Dave/Generated/FREERTOS/tasks.c **** 		vPortStoreTaskMPUSettings( &( pxNewTCB->xMPUSettings ), xRegions, pxNewTCB->pxStack, ulStackDepth
 963:../Dave/Generated/FREERTOS/tasks.c **** 	}
 964:../Dave/Generated/FREERTOS/tasks.c **** 	#else
 965:../Dave/Generated/FREERTOS/tasks.c **** 	{
 966:../Dave/Generated/FREERTOS/tasks.c **** 		/* Avoid compiler warning about unreferenced parameter. */
 967:../Dave/Generated/FREERTOS/tasks.c **** 		( void ) xRegions;
 968:../Dave/Generated/FREERTOS/tasks.c **** 	}
 969:../Dave/Generated/FREERTOS/tasks.c **** 	#endif
 970:../Dave/Generated/FREERTOS/tasks.c **** 
 971:../Dave/Generated/FREERTOS/tasks.c **** 	#if( configNUM_THREAD_LOCAL_STORAGE_POINTERS != 0 )
 972:../Dave/Generated/FREERTOS/tasks.c **** 	{
 973:../Dave/Generated/FREERTOS/tasks.c **** 		for( x = 0; x < ( UBaseType_t ) configNUM_THREAD_LOCAL_STORAGE_POINTERS; x++ )
 410              	 .loc 1 973 0
 411 00da 0023     	 movs r3,#0
 412 00dc FB61     	 str r3,[r7,#28]
 413 00de 09E0     	 b .L17
 414              	.L18:
 974:../Dave/Generated/FREERTOS/tasks.c **** 		{
 975:../Dave/Generated/FREERTOS/tasks.c **** 			pxNewTCB->pvThreadLocalStoragePointers[ x ] = NULL;
 415              	 .loc 1 975 0 discriminator 3
 416 00e0 3A6B     	 ldr r2,[r7,#48]
 417 00e2 FB69     	 ldr r3,[r7,#28]
 418 00e4 1433     	 adds r3,r3,#20
 419 00e6 9B00     	 lsls r3,r3,#2
 420 00e8 1344     	 add r3,r3,r2
 421 00ea 0022     	 movs r2,#0
 422 00ec 5A60     	 str r2,[r3,#4]
 973:../Dave/Generated/FREERTOS/tasks.c **** 		{
 423              	 .loc 1 973 0 discriminator 3
 424 00ee FB69     	 ldr r3,[r7,#28]
 425 00f0 0133     	 adds r3,r3,#1
 426 00f2 FB61     	 str r3,[r7,#28]
 427              	.L17:
 973:../Dave/Generated/FREERTOS/tasks.c **** 		{
 428              	 .loc 1 973 0 is_stmt 0 discriminator 1
 429 00f4 FB69     	 ldr r3,[r7,#28]
 430 00f6 042B     	 cmp r3,#4
 431 00f8 F2D9     	 bls .L18
 976:../Dave/Generated/FREERTOS/tasks.c **** 		}
 977:../Dave/Generated/FREERTOS/tasks.c **** 	}
 978:../Dave/Generated/FREERTOS/tasks.c **** 	#endif
 979:../Dave/Generated/FREERTOS/tasks.c **** 
 980:../Dave/Generated/FREERTOS/tasks.c **** 	#if ( configUSE_TASK_NOTIFICATIONS == 1 )
 981:../Dave/Generated/FREERTOS/tasks.c **** 	{
 982:../Dave/Generated/FREERTOS/tasks.c **** 		pxNewTCB->ulNotifiedValue = 0;
 432              	 .loc 1 982 0 is_stmt 1
 433 00fa 3B6B     	 ldr r3,[r7,#48]
 434 00fc 0022     	 movs r2,#0
 435 00fe 9A66     	 str r2,[r3,#104]
 983:../Dave/Generated/FREERTOS/tasks.c **** 		pxNewTCB->ucNotifyState = taskNOT_WAITING_NOTIFICATION;
 436              	 .loc 1 983 0
 437 0100 3B6B     	 ldr r3,[r7,#48]
 438 0102 0022     	 movs r2,#0
 439 0104 83F86C20 	 strb r2,[r3,#108]
 984:../Dave/Generated/FREERTOS/tasks.c **** 	}
 985:../Dave/Generated/FREERTOS/tasks.c **** 	#endif
 986:../Dave/Generated/FREERTOS/tasks.c **** 
 987:../Dave/Generated/FREERTOS/tasks.c **** 	#if ( configUSE_NEWLIB_REENTRANT == 1 )
 988:../Dave/Generated/FREERTOS/tasks.c **** 	{
 989:../Dave/Generated/FREERTOS/tasks.c **** 		/* Initialise this task's Newlib reent structure. */
 990:../Dave/Generated/FREERTOS/tasks.c **** 		_REENT_INIT_PTR( ( &( pxNewTCB->xNewLib_reent ) ) );
 991:../Dave/Generated/FREERTOS/tasks.c **** 	}
 992:../Dave/Generated/FREERTOS/tasks.c **** 	#endif
 993:../Dave/Generated/FREERTOS/tasks.c **** 
 994:../Dave/Generated/FREERTOS/tasks.c **** 	#if( INCLUDE_xTaskAbortDelay == 1 )
 995:../Dave/Generated/FREERTOS/tasks.c **** 	{
 996:../Dave/Generated/FREERTOS/tasks.c **** 		pxNewTCB->ucDelayAborted = pdFALSE;
 440              	 .loc 1 996 0
 441 0108 3B6B     	 ldr r3,[r7,#48]
 442 010a 0022     	 movs r2,#0
 443 010c 83F86D20 	 strb r2,[r3,#109]
 997:../Dave/Generated/FREERTOS/tasks.c **** 	}
 998:../Dave/Generated/FREERTOS/tasks.c **** 	#endif
 999:../Dave/Generated/FREERTOS/tasks.c **** 
1000:../Dave/Generated/FREERTOS/tasks.c **** 	/* Initialize the TCB stack to look as if the task was already running,
1001:../Dave/Generated/FREERTOS/tasks.c **** 	but had been interrupted by the scheduler.  The return address is set
1002:../Dave/Generated/FREERTOS/tasks.c **** 	to the start of the task function. Once the stack has been initialised
1003:../Dave/Generated/FREERTOS/tasks.c **** 	the top of stack variable is updated. */
1004:../Dave/Generated/FREERTOS/tasks.c **** 	#if( portUSING_MPU_WRAPPERS == 1 )
1005:../Dave/Generated/FREERTOS/tasks.c **** 	{
1006:../Dave/Generated/FREERTOS/tasks.c **** 		pxNewTCB->pxTopOfStack = pxPortInitialiseStack( pxTopOfStack, pxTaskCode, pvParameters, xRunPrivi
1007:../Dave/Generated/FREERTOS/tasks.c **** 	}
1008:../Dave/Generated/FREERTOS/tasks.c **** 	#else /* portUSING_MPU_WRAPPERS */
1009:../Dave/Generated/FREERTOS/tasks.c **** 	{
1010:../Dave/Generated/FREERTOS/tasks.c **** 		pxNewTCB->pxTopOfStack = pxPortInitialiseStack( pxTopOfStack, pxTaskCode, pvParameters );
 444              	 .loc 1 1010 0
 445 0110 B869     	 ldr r0,[r7,#24]
 446 0112 F968     	 ldr r1,[r7,#12]
 447 0114 3A68     	 ldr r2,[r7]
 448 0116 FFF7FEFF 	 bl pxPortInitialiseStack
 449 011a 0246     	 mov r2,r0
 450 011c 3B6B     	 ldr r3,[r7,#48]
 451 011e 1A60     	 str r2,[r3]
1011:../Dave/Generated/FREERTOS/tasks.c **** 	}
1012:../Dave/Generated/FREERTOS/tasks.c **** 	#endif /* portUSING_MPU_WRAPPERS */
1013:../Dave/Generated/FREERTOS/tasks.c **** 
1014:../Dave/Generated/FREERTOS/tasks.c **** 	if( ( void * ) pxCreatedTask != NULL )
 452              	 .loc 1 1014 0
 453 0120 FB6A     	 ldr r3,[r7,#44]
 454 0122 002B     	 cmp r3,#0
 455 0124 02D0     	 beq .L9
1015:../Dave/Generated/FREERTOS/tasks.c **** 	{
1016:../Dave/Generated/FREERTOS/tasks.c **** 		/* Pass the handle out in an anonymous way.  The handle can be used to
1017:../Dave/Generated/FREERTOS/tasks.c **** 		change the created task's priority, delete the created task, etc.*/
1018:../Dave/Generated/FREERTOS/tasks.c **** 		*pxCreatedTask = ( TaskHandle_t ) pxNewTCB;
 456              	 .loc 1 1018 0
 457 0126 FB6A     	 ldr r3,[r7,#44]
 458 0128 3A6B     	 ldr r2,[r7,#48]
 459 012a 1A60     	 str r2,[r3]
 460              	.L9:
1019:../Dave/Generated/FREERTOS/tasks.c **** 	}
1020:../Dave/Generated/FREERTOS/tasks.c **** 	else
1021:../Dave/Generated/FREERTOS/tasks.c **** 	{
1022:../Dave/Generated/FREERTOS/tasks.c **** 		mtCOVERAGE_TEST_MARKER();
1023:../Dave/Generated/FREERTOS/tasks.c **** 	}
1024:../Dave/Generated/FREERTOS/tasks.c **** }
 461              	 .loc 1 1024 0
 462 012c 2037     	 adds r7,r7,#32
 463              	.LCFI8:
 464              	 .cfi_def_cfa_offset 8
 465 012e BD46     	 mov sp,r7
 466              	.LCFI9:
 467              	 .cfi_def_cfa_register 13
 468              	 
 469 0130 80BD     	 pop {r7,pc}
 470              	 .cfi_endproc
 471              	.LFE136:
 473 0132 00BF     	 .section .text.prvAddNewTaskToReadyList,"ax",%progbits
 474              	 .align 2
 475              	 .thumb
 476              	 .thumb_func
 478              	prvAddNewTaskToReadyList:
 479              	.LFB137:
1025:../Dave/Generated/FREERTOS/tasks.c **** /*-----------------------------------------------------------*/
1026:../Dave/Generated/FREERTOS/tasks.c **** 
1027:../Dave/Generated/FREERTOS/tasks.c **** static void prvAddNewTaskToReadyList( TCB_t *pxNewTCB )
1028:../Dave/Generated/FREERTOS/tasks.c **** {
 480              	 .loc 1 1028 0
 481              	 .cfi_startproc
 482              	 
 483              	 
 484 0000 80B5     	 push {r7,lr}
 485              	.LCFI10:
 486              	 .cfi_def_cfa_offset 8
 487              	 .cfi_offset 7,-8
 488              	 .cfi_offset 14,-4
 489 0002 82B0     	 sub sp,sp,#8
 490              	.LCFI11:
 491              	 .cfi_def_cfa_offset 16
 492 0004 00AF     	 add r7,sp,#0
 493              	.LCFI12:
 494              	 .cfi_def_cfa_register 7
 495 0006 7860     	 str r0,[r7,#4]
1029:../Dave/Generated/FREERTOS/tasks.c **** 	/* Ensure interrupts don't access the task lists while the lists are being
1030:../Dave/Generated/FREERTOS/tasks.c **** 	updated. */
1031:../Dave/Generated/FREERTOS/tasks.c **** 	taskENTER_CRITICAL();
 496              	 .loc 1 1031 0
 497 0008 FFF7FEFF 	 bl vPortEnterCritical
1032:../Dave/Generated/FREERTOS/tasks.c **** 	{
1033:../Dave/Generated/FREERTOS/tasks.c **** 		uxCurrentNumberOfTasks++;
 498              	 .loc 1 1033 0
 499 000c 2D4B     	 ldr r3,.L24
 500 000e 1B68     	 ldr r3,[r3]
 501 0010 0133     	 adds r3,r3,#1
 502 0012 2C4A     	 ldr r2,.L24
 503 0014 1360     	 str r3,[r2]
1034:../Dave/Generated/FREERTOS/tasks.c **** 		if( pxCurrentTCB == NULL )
 504              	 .loc 1 1034 0
 505 0016 2C4B     	 ldr r3,.L24+4
 506 0018 1B68     	 ldr r3,[r3]
 507 001a 002B     	 cmp r3,#0
 508 001c 09D1     	 bne .L21
1035:../Dave/Generated/FREERTOS/tasks.c **** 		{
1036:../Dave/Generated/FREERTOS/tasks.c **** 			/* There are no other tasks, or all the other tasks are in
1037:../Dave/Generated/FREERTOS/tasks.c **** 			the suspended state - make this the current task. */
1038:../Dave/Generated/FREERTOS/tasks.c **** 			pxCurrentTCB = pxNewTCB;
 509              	 .loc 1 1038 0
 510 001e 2A4A     	 ldr r2,.L24+4
 511 0020 7B68     	 ldr r3,[r7,#4]
 512 0022 1360     	 str r3,[r2]
1039:../Dave/Generated/FREERTOS/tasks.c **** 
1040:../Dave/Generated/FREERTOS/tasks.c **** 			if( uxCurrentNumberOfTasks == ( UBaseType_t ) 1 )
 513              	 .loc 1 1040 0
 514 0024 274B     	 ldr r3,.L24
 515 0026 1B68     	 ldr r3,[r3]
 516 0028 012B     	 cmp r3,#1
 517 002a 10D1     	 bne .L22
1041:../Dave/Generated/FREERTOS/tasks.c **** 			{
1042:../Dave/Generated/FREERTOS/tasks.c **** 				/* This is the first task to be created so do the preliminary
1043:../Dave/Generated/FREERTOS/tasks.c **** 				initialisation required.  We will not recover if this call
1044:../Dave/Generated/FREERTOS/tasks.c **** 				fails, but we will report the failure. */
1045:../Dave/Generated/FREERTOS/tasks.c **** 				prvInitialiseTaskLists();
 518              	 .loc 1 1045 0
 519 002c FFF7FEFF 	 bl prvInitialiseTaskLists
 520 0030 0DE0     	 b .L22
 521              	.L21:
1046:../Dave/Generated/FREERTOS/tasks.c **** 			}
1047:../Dave/Generated/FREERTOS/tasks.c **** 			else
1048:../Dave/Generated/FREERTOS/tasks.c **** 			{
1049:../Dave/Generated/FREERTOS/tasks.c **** 				mtCOVERAGE_TEST_MARKER();
1050:../Dave/Generated/FREERTOS/tasks.c **** 			}
1051:../Dave/Generated/FREERTOS/tasks.c **** 		}
1052:../Dave/Generated/FREERTOS/tasks.c **** 		else
1053:../Dave/Generated/FREERTOS/tasks.c **** 		{
1054:../Dave/Generated/FREERTOS/tasks.c **** 			/* If the scheduler is not already running, make this task the
1055:../Dave/Generated/FREERTOS/tasks.c **** 			current task if it is the highest priority task to be created
1056:../Dave/Generated/FREERTOS/tasks.c **** 			so far. */
1057:../Dave/Generated/FREERTOS/tasks.c **** 			if( xSchedulerRunning == pdFALSE )
 522              	 .loc 1 1057 0
 523 0032 264B     	 ldr r3,.L24+8
 524 0034 1B68     	 ldr r3,[r3]
 525 0036 002B     	 cmp r3,#0
 526 0038 09D1     	 bne .L22
1058:../Dave/Generated/FREERTOS/tasks.c **** 			{
1059:../Dave/Generated/FREERTOS/tasks.c **** 				if( pxCurrentTCB->uxPriority <= pxNewTCB->uxPriority )
 527              	 .loc 1 1059 0
 528 003a 234B     	 ldr r3,.L24+4
 529 003c 1B68     	 ldr r3,[r3]
 530 003e DA6A     	 ldr r2,[r3,#44]
 531 0040 7B68     	 ldr r3,[r7,#4]
 532 0042 DB6A     	 ldr r3,[r3,#44]
 533 0044 9A42     	 cmp r2,r3
 534 0046 02D8     	 bhi .L22
1060:../Dave/Generated/FREERTOS/tasks.c **** 				{
1061:../Dave/Generated/FREERTOS/tasks.c **** 					pxCurrentTCB = pxNewTCB;
 535              	 .loc 1 1061 0
 536 0048 1F4A     	 ldr r2,.L24+4
 537 004a 7B68     	 ldr r3,[r7,#4]
 538 004c 1360     	 str r3,[r2]
 539              	.L22:
1062:../Dave/Generated/FREERTOS/tasks.c **** 				}
1063:../Dave/Generated/FREERTOS/tasks.c **** 				else
1064:../Dave/Generated/FREERTOS/tasks.c **** 				{
1065:../Dave/Generated/FREERTOS/tasks.c **** 					mtCOVERAGE_TEST_MARKER();
1066:../Dave/Generated/FREERTOS/tasks.c **** 				}
1067:../Dave/Generated/FREERTOS/tasks.c **** 			}
1068:../Dave/Generated/FREERTOS/tasks.c **** 			else
1069:../Dave/Generated/FREERTOS/tasks.c **** 			{
1070:../Dave/Generated/FREERTOS/tasks.c **** 				mtCOVERAGE_TEST_MARKER();
1071:../Dave/Generated/FREERTOS/tasks.c **** 			}
1072:../Dave/Generated/FREERTOS/tasks.c **** 		}
1073:../Dave/Generated/FREERTOS/tasks.c **** 
1074:../Dave/Generated/FREERTOS/tasks.c **** 		uxTaskNumber++;
 540              	 .loc 1 1074 0
 541 004e 204B     	 ldr r3,.L24+12
 542 0050 1B68     	 ldr r3,[r3]
 543 0052 0133     	 adds r3,r3,#1
 544 0054 1E4A     	 ldr r2,.L24+12
 545 0056 1360     	 str r3,[r2]
1075:../Dave/Generated/FREERTOS/tasks.c **** 
1076:../Dave/Generated/FREERTOS/tasks.c **** 		#if ( configUSE_TRACE_FACILITY == 1 )
1077:../Dave/Generated/FREERTOS/tasks.c **** 		{
1078:../Dave/Generated/FREERTOS/tasks.c **** 			/* Add a counter into the TCB for tracing only. */
1079:../Dave/Generated/FREERTOS/tasks.c **** 			pxNewTCB->uxTCBNumber = uxTaskNumber;
 546              	 .loc 1 1079 0
 547 0058 1D4B     	 ldr r3,.L24+12
 548 005a 1A68     	 ldr r2,[r3]
 549 005c 7B68     	 ldr r3,[r7,#4]
 550 005e 5A64     	 str r2,[r3,#68]
1080:../Dave/Generated/FREERTOS/tasks.c **** 		}
1081:../Dave/Generated/FREERTOS/tasks.c **** 		#endif /* configUSE_TRACE_FACILITY */
1082:../Dave/Generated/FREERTOS/tasks.c **** 		traceTASK_CREATE( pxNewTCB );
1083:../Dave/Generated/FREERTOS/tasks.c **** 
1084:../Dave/Generated/FREERTOS/tasks.c **** 		prvAddTaskToReadyList( pxNewTCB );
 551              	 .loc 1 1084 0
 552 0060 7B68     	 ldr r3,[r7,#4]
 553 0062 DB6A     	 ldr r3,[r3,#44]
 554 0064 1A46     	 mov r2,r3
 555 0066 0123     	 movs r3,#1
 556 0068 03FA02F2 	 lsl r2,r3,r2
 557 006c 194B     	 ldr r3,.L24+16
 558 006e 1B68     	 ldr r3,[r3]
 559 0070 1343     	 orrs r3,r3,r2
 560 0072 184A     	 ldr r2,.L24+16
 561 0074 1360     	 str r3,[r2]
 562 0076 7B68     	 ldr r3,[r7,#4]
 563 0078 DA6A     	 ldr r2,[r3,#44]
 564 007a 1346     	 mov r3,r2
 565 007c 9B00     	 lsls r3,r3,#2
 566 007e 1344     	 add r3,r3,r2
 567 0080 9B00     	 lsls r3,r3,#2
 568 0082 154A     	 ldr r2,.L24+20
 569 0084 1A44     	 add r2,r2,r3
 570 0086 7B68     	 ldr r3,[r7,#4]
 571 0088 0433     	 adds r3,r3,#4
 572 008a 1046     	 mov r0,r2
 573 008c 1946     	 mov r1,r3
 574 008e FFF7FEFF 	 bl vListInsertEnd
1085:../Dave/Generated/FREERTOS/tasks.c **** 
1086:../Dave/Generated/FREERTOS/tasks.c **** 		portSETUP_TCB( pxNewTCB );
1087:../Dave/Generated/FREERTOS/tasks.c **** 	}
1088:../Dave/Generated/FREERTOS/tasks.c **** 	taskEXIT_CRITICAL();
 575              	 .loc 1 1088 0
 576 0092 FFF7FEFF 	 bl vPortExitCritical
1089:../Dave/Generated/FREERTOS/tasks.c **** 
1090:../Dave/Generated/FREERTOS/tasks.c **** 	if( xSchedulerRunning != pdFALSE )
 577              	 .loc 1 1090 0
 578 0096 0D4B     	 ldr r3,.L24+8
 579 0098 1B68     	 ldr r3,[r3]
 580 009a 002B     	 cmp r3,#0
 581 009c 0ED0     	 beq .L20
1091:../Dave/Generated/FREERTOS/tasks.c **** 	{
1092:../Dave/Generated/FREERTOS/tasks.c **** 		/* If the created task is of a higher priority than the current task
1093:../Dave/Generated/FREERTOS/tasks.c **** 		then it should run now. */
1094:../Dave/Generated/FREERTOS/tasks.c **** 		if( pxCurrentTCB->uxPriority < pxNewTCB->uxPriority )
 582              	 .loc 1 1094 0
 583 009e 0A4B     	 ldr r3,.L24+4
 584 00a0 1B68     	 ldr r3,[r3]
 585 00a2 DA6A     	 ldr r2,[r3,#44]
 586 00a4 7B68     	 ldr r3,[r7,#4]
 587 00a6 DB6A     	 ldr r3,[r3,#44]
 588 00a8 9A42     	 cmp r2,r3
 589 00aa 07D2     	 bcs .L20
1095:../Dave/Generated/FREERTOS/tasks.c **** 		{
1096:../Dave/Generated/FREERTOS/tasks.c **** 			taskYIELD_IF_USING_PREEMPTION();
 590              	 .loc 1 1096 0
 591 00ac 0B4B     	 ldr r3,.L24+24
 592 00ae 4FF08052 	 mov r2,#268435456
 593 00b2 1A60     	 str r2,[r3]
 594              	
 595 00b4 BFF34F8F 	 dsb
 596              	
 597              	
 598 00b8 BFF36F8F 	 isb
 599              	
 600              	 .thumb
 601              	.L20:
1097:../Dave/Generated/FREERTOS/tasks.c **** 		}
1098:../Dave/Generated/FREERTOS/tasks.c **** 		else
1099:../Dave/Generated/FREERTOS/tasks.c **** 		{
1100:../Dave/Generated/FREERTOS/tasks.c **** 			mtCOVERAGE_TEST_MARKER();
1101:../Dave/Generated/FREERTOS/tasks.c **** 		}
1102:../Dave/Generated/FREERTOS/tasks.c **** 	}
1103:../Dave/Generated/FREERTOS/tasks.c **** 	else
1104:../Dave/Generated/FREERTOS/tasks.c **** 	{
1105:../Dave/Generated/FREERTOS/tasks.c **** 		mtCOVERAGE_TEST_MARKER();
1106:../Dave/Generated/FREERTOS/tasks.c **** 	}
1107:../Dave/Generated/FREERTOS/tasks.c **** }
 602              	 .loc 1 1107 0
 603 00bc 0837     	 adds r7,r7,#8
 604              	.LCFI13:
 605              	 .cfi_def_cfa_offset 8
 606 00be BD46     	 mov sp,r7
 607              	.LCFI14:
 608              	 .cfi_def_cfa_register 13
 609              	 
 610 00c0 80BD     	 pop {r7,pc}
 611              	.L25:
 612 00c2 00BF     	 .align 2
 613              	.L24:
 614 00c4 00000000 	 .word uxCurrentNumberOfTasks
 615 00c8 00000000 	 .word pxCurrentTCB
 616 00cc 00000000 	 .word xSchedulerRunning
 617 00d0 00000000 	 .word uxTaskNumber
 618 00d4 00000000 	 .word uxTopReadyPriority
 619 00d8 00000000 	 .word pxReadyTasksLists
 620 00dc 04ED00E0 	 .word -536810236
 621              	 .cfi_endproc
 622              	.LFE137:
 624              	 .section .text.vTaskDelete,"ax",%progbits
 625              	 .align 2
 626              	 .global vTaskDelete
 627              	 .thumb
 628              	 .thumb_func
 630              	vTaskDelete:
 631              	.LFB138:
1108:../Dave/Generated/FREERTOS/tasks.c **** /*-----------------------------------------------------------*/
1109:../Dave/Generated/FREERTOS/tasks.c **** 
1110:../Dave/Generated/FREERTOS/tasks.c **** #if ( INCLUDE_vTaskDelete == 1 )
1111:../Dave/Generated/FREERTOS/tasks.c **** 
1112:../Dave/Generated/FREERTOS/tasks.c **** 	void vTaskDelete( TaskHandle_t xTaskToDelete )
1113:../Dave/Generated/FREERTOS/tasks.c **** 	{
 632              	 .loc 1 1113 0
 633              	 .cfi_startproc
 634              	 
 635              	 
 636 0000 80B5     	 push {r7,lr}
 637              	.LCFI15:
 638              	 .cfi_def_cfa_offset 8
 639              	 .cfi_offset 7,-8
 640              	 .cfi_offset 14,-4
 641 0002 84B0     	 sub sp,sp,#16
 642              	.LCFI16:
 643              	 .cfi_def_cfa_offset 24
 644 0004 00AF     	 add r7,sp,#0
 645              	.LCFI17:
 646              	 .cfi_def_cfa_register 7
 647 0006 7860     	 str r0,[r7,#4]
1114:../Dave/Generated/FREERTOS/tasks.c **** 	TCB_t *pxTCB;
1115:../Dave/Generated/FREERTOS/tasks.c **** 
1116:../Dave/Generated/FREERTOS/tasks.c **** 		taskENTER_CRITICAL();
 648              	 .loc 1 1116 0
 649 0008 FFF7FEFF 	 bl vPortEnterCritical
1117:../Dave/Generated/FREERTOS/tasks.c **** 		{
1118:../Dave/Generated/FREERTOS/tasks.c **** 			/* If null is passed in here then it is the calling task that is
1119:../Dave/Generated/FREERTOS/tasks.c **** 			being deleted. */
1120:../Dave/Generated/FREERTOS/tasks.c **** 			pxTCB = prvGetTCBFromHandle( xTaskToDelete );
 650              	 .loc 1 1120 0
 651 000c 7B68     	 ldr r3,[r7,#4]
 652 000e 002B     	 cmp r3,#0
 653 0010 02D1     	 bne .L27
 654              	 .loc 1 1120 0 is_stmt 0 discriminator 1
 655 0012 384B     	 ldr r3,.L37
 656 0014 1B68     	 ldr r3,[r3]
 657 0016 00E0     	 b .L28
 658              	.L27:
 659              	 .loc 1 1120 0 discriminator 2
 660 0018 7B68     	 ldr r3,[r7,#4]
 661              	.L28:
 662              	 .loc 1 1120 0 discriminator 4
 663 001a FB60     	 str r3,[r7,#12]
1121:../Dave/Generated/FREERTOS/tasks.c **** 
1122:../Dave/Generated/FREERTOS/tasks.c **** 			/* Remove task from the ready list. */
1123:../Dave/Generated/FREERTOS/tasks.c **** 			if( uxListRemove( &( pxTCB->xStateListItem ) ) == ( UBaseType_t ) 0 )
 664              	 .loc 1 1123 0 is_stmt 1 discriminator 4
 665 001c FB68     	 ldr r3,[r7,#12]
 666 001e 0433     	 adds r3,r3,#4
 667 0020 1846     	 mov r0,r3
 668 0022 FFF7FEFF 	 bl uxListRemove
 669 0026 0346     	 mov r3,r0
 670 0028 002B     	 cmp r3,#0
 671 002a 15D1     	 bne .L29
1124:../Dave/Generated/FREERTOS/tasks.c **** 			{
1125:../Dave/Generated/FREERTOS/tasks.c **** 				taskRESET_READY_PRIORITY( pxTCB->uxPriority );
 672              	 .loc 1 1125 0
 673 002c FB68     	 ldr r3,[r7,#12]
 674 002e DA6A     	 ldr r2,[r3,#44]
 675 0030 3149     	 ldr r1,.L37+4
 676 0032 1346     	 mov r3,r2
 677 0034 9B00     	 lsls r3,r3,#2
 678 0036 1344     	 add r3,r3,r2
 679 0038 9B00     	 lsls r3,r3,#2
 680 003a 0B44     	 add r3,r3,r1
 681 003c 1B68     	 ldr r3,[r3]
 682 003e 002B     	 cmp r3,#0
 683 0040 0AD1     	 bne .L29
 684              	 .loc 1 1125 0 is_stmt 0 discriminator 1
 685 0042 FB68     	 ldr r3,[r7,#12]
 686 0044 DB6A     	 ldr r3,[r3,#44]
 687 0046 1A46     	 mov r2,r3
 688 0048 0123     	 movs r3,#1
 689 004a 9340     	 lsls r3,r3,r2
 690 004c DA43     	 mvns r2,r3
 691 004e 2B4B     	 ldr r3,.L37+8
 692 0050 1B68     	 ldr r3,[r3]
 693 0052 1340     	 ands r3,r3,r2
 694 0054 294A     	 ldr r2,.L37+8
 695 0056 1360     	 str r3,[r2]
 696              	.L29:
1126:../Dave/Generated/FREERTOS/tasks.c **** 			}
1127:../Dave/Generated/FREERTOS/tasks.c **** 			else
1128:../Dave/Generated/FREERTOS/tasks.c **** 			{
1129:../Dave/Generated/FREERTOS/tasks.c **** 				mtCOVERAGE_TEST_MARKER();
1130:../Dave/Generated/FREERTOS/tasks.c **** 			}
1131:../Dave/Generated/FREERTOS/tasks.c **** 
1132:../Dave/Generated/FREERTOS/tasks.c **** 			/* Is the task waiting on an event also? */
1133:../Dave/Generated/FREERTOS/tasks.c **** 			if( listLIST_ITEM_CONTAINER( &( pxTCB->xEventListItem ) ) != NULL )
 697              	 .loc 1 1133 0 is_stmt 1
 698 0058 FB68     	 ldr r3,[r7,#12]
 699 005a 9B6A     	 ldr r3,[r3,#40]
 700 005c 002B     	 cmp r3,#0
 701 005e 04D0     	 beq .L31
1134:../Dave/Generated/FREERTOS/tasks.c **** 			{
1135:../Dave/Generated/FREERTOS/tasks.c **** 				( void ) uxListRemove( &( pxTCB->xEventListItem ) );
 702              	 .loc 1 1135 0
 703 0060 FB68     	 ldr r3,[r7,#12]
 704 0062 1833     	 adds r3,r3,#24
 705 0064 1846     	 mov r0,r3
 706 0066 FFF7FEFF 	 bl uxListRemove
 707              	.L31:
1136:../Dave/Generated/FREERTOS/tasks.c **** 			}
1137:../Dave/Generated/FREERTOS/tasks.c **** 			else
1138:../Dave/Generated/FREERTOS/tasks.c **** 			{
1139:../Dave/Generated/FREERTOS/tasks.c **** 				mtCOVERAGE_TEST_MARKER();
1140:../Dave/Generated/FREERTOS/tasks.c **** 			}
1141:../Dave/Generated/FREERTOS/tasks.c **** 
1142:../Dave/Generated/FREERTOS/tasks.c **** 			/* Increment the uxTaskNumber also so kernel aware debuggers can
1143:../Dave/Generated/FREERTOS/tasks.c **** 			detect that the task lists need re-generating.  This is done before
1144:../Dave/Generated/FREERTOS/tasks.c **** 			portPRE_TASK_DELETE_HOOK() as in the Windows port that macro will
1145:../Dave/Generated/FREERTOS/tasks.c **** 			not return. */
1146:../Dave/Generated/FREERTOS/tasks.c **** 			uxTaskNumber++;
 708              	 .loc 1 1146 0
 709 006a 254B     	 ldr r3,.L37+12
 710 006c 1B68     	 ldr r3,[r3]
 711 006e 0133     	 adds r3,r3,#1
 712 0070 234A     	 ldr r2,.L37+12
 713 0072 1360     	 str r3,[r2]
1147:../Dave/Generated/FREERTOS/tasks.c **** 
1148:../Dave/Generated/FREERTOS/tasks.c **** 			if( pxTCB == pxCurrentTCB )
 714              	 .loc 1 1148 0
 715 0074 1F4B     	 ldr r3,.L37
 716 0076 1B68     	 ldr r3,[r3]
 717 0078 FA68     	 ldr r2,[r7,#12]
 718 007a 9A42     	 cmp r2,r3
 719 007c 0BD1     	 bne .L32
1149:../Dave/Generated/FREERTOS/tasks.c **** 			{
1150:../Dave/Generated/FREERTOS/tasks.c **** 				/* A task is deleting itself.  This cannot complete within the
1151:../Dave/Generated/FREERTOS/tasks.c **** 				task itself, as a context switch to another task is required.
1152:../Dave/Generated/FREERTOS/tasks.c **** 				Place the task in the termination list.  The idle task will
1153:../Dave/Generated/FREERTOS/tasks.c **** 				check the termination list and free up any memory allocated by
1154:../Dave/Generated/FREERTOS/tasks.c **** 				the scheduler for the TCB and stack of the deleted task. */
1155:../Dave/Generated/FREERTOS/tasks.c **** 				vListInsertEnd( &xTasksWaitingTermination, &( pxTCB->xStateListItem ) );
 720              	 .loc 1 1155 0
 721 007e FB68     	 ldr r3,[r7,#12]
 722 0080 0433     	 adds r3,r3,#4
 723 0082 2048     	 ldr r0,.L37+16
 724 0084 1946     	 mov r1,r3
 725 0086 FFF7FEFF 	 bl vListInsertEnd
1156:../Dave/Generated/FREERTOS/tasks.c **** 
1157:../Dave/Generated/FREERTOS/tasks.c **** 				/* Increment the ucTasksDeleted variable so the idle task knows
1158:../Dave/Generated/FREERTOS/tasks.c **** 				there is a task that has been deleted and that it should therefore
1159:../Dave/Generated/FREERTOS/tasks.c **** 				check the xTasksWaitingTermination list. */
1160:../Dave/Generated/FREERTOS/tasks.c **** 				++uxDeletedTasksWaitingCleanUp;
 726              	 .loc 1 1160 0
 727 008a 1F4B     	 ldr r3,.L37+20
 728 008c 1B68     	 ldr r3,[r3]
 729 008e 0133     	 adds r3,r3,#1
 730 0090 1D4A     	 ldr r2,.L37+20
 731 0092 1360     	 str r3,[r2]
 732 0094 09E0     	 b .L33
 733              	.L32:
1161:../Dave/Generated/FREERTOS/tasks.c **** 
1162:../Dave/Generated/FREERTOS/tasks.c **** 				/* The pre-delete hook is primarily for the Windows simulator,
1163:../Dave/Generated/FREERTOS/tasks.c **** 				in which Windows specific clean up operations are performed,
1164:../Dave/Generated/FREERTOS/tasks.c **** 				after which it is not possible to yield away from this task -
1165:../Dave/Generated/FREERTOS/tasks.c **** 				hence xYieldPending is used to latch that a context switch is
1166:../Dave/Generated/FREERTOS/tasks.c **** 				required. */
1167:../Dave/Generated/FREERTOS/tasks.c **** 				portPRE_TASK_DELETE_HOOK( pxTCB, &xYieldPending );
1168:../Dave/Generated/FREERTOS/tasks.c **** 			}
1169:../Dave/Generated/FREERTOS/tasks.c **** 			else
1170:../Dave/Generated/FREERTOS/tasks.c **** 			{
1171:../Dave/Generated/FREERTOS/tasks.c **** 				--uxCurrentNumberOfTasks;
 734              	 .loc 1 1171 0
 735 0096 1D4B     	 ldr r3,.L37+24
 736 0098 1B68     	 ldr r3,[r3]
 737 009a 013B     	 subs r3,r3,#1
 738 009c 1B4A     	 ldr r2,.L37+24
 739 009e 1360     	 str r3,[r2]
1172:../Dave/Generated/FREERTOS/tasks.c **** 				prvDeleteTCB( pxTCB );
 740              	 .loc 1 1172 0
 741 00a0 F868     	 ldr r0,[r7,#12]
 742 00a2 FFF7FEFF 	 bl prvDeleteTCB
1173:../Dave/Generated/FREERTOS/tasks.c **** 
1174:../Dave/Generated/FREERTOS/tasks.c **** 				/* Reset the next expected unblock time in case it referred to
1175:../Dave/Generated/FREERTOS/tasks.c **** 				the task that has just been deleted. */
1176:../Dave/Generated/FREERTOS/tasks.c **** 				prvResetNextTaskUnblockTime();
 743              	 .loc 1 1176 0
 744 00a6 FFF7FEFF 	 bl prvResetNextTaskUnblockTime
 745              	.L33:
1177:../Dave/Generated/FREERTOS/tasks.c **** 			}
1178:../Dave/Generated/FREERTOS/tasks.c **** 
1179:../Dave/Generated/FREERTOS/tasks.c **** 			traceTASK_DELETE( pxTCB );
1180:../Dave/Generated/FREERTOS/tasks.c **** 		}
1181:../Dave/Generated/FREERTOS/tasks.c **** 		taskEXIT_CRITICAL();
 746              	 .loc 1 1181 0
 747 00aa FFF7FEFF 	 bl vPortExitCritical
1182:../Dave/Generated/FREERTOS/tasks.c **** 
1183:../Dave/Generated/FREERTOS/tasks.c **** 		/* Force a reschedule if it is the currently running task that has just
1184:../Dave/Generated/FREERTOS/tasks.c **** 		been deleted. */
1185:../Dave/Generated/FREERTOS/tasks.c **** 		if( xSchedulerRunning != pdFALSE )
 748              	 .loc 1 1185 0
 749 00ae 184B     	 ldr r3,.L37+28
 750 00b0 1B68     	 ldr r3,[r3]
 751 00b2 002B     	 cmp r3,#0
 752 00b4 1AD0     	 beq .L26
1186:../Dave/Generated/FREERTOS/tasks.c **** 		{
1187:../Dave/Generated/FREERTOS/tasks.c **** 			if( pxTCB == pxCurrentTCB )
 753              	 .loc 1 1187 0
 754 00b6 0F4B     	 ldr r3,.L37
 755 00b8 1B68     	 ldr r3,[r3]
 756 00ba FA68     	 ldr r2,[r7,#12]
 757 00bc 9A42     	 cmp r2,r3
 758 00be 15D1     	 bne .L26
1188:../Dave/Generated/FREERTOS/tasks.c **** 			{
1189:../Dave/Generated/FREERTOS/tasks.c **** 				configASSERT( uxSchedulerSuspended == 0 );
 759              	 .loc 1 1189 0
 760 00c0 144B     	 ldr r3,.L37+32
 761 00c2 1B68     	 ldr r3,[r3]
 762 00c4 002B     	 cmp r3,#0
 763 00c6 09D0     	 beq .L35
 764              	.LBB114:
 765              	.LBB115:
 766              	 .loc 2 195 0 discriminator 1
 767              	
 768 00c8 4FF0FC03 	 mov r3,#252
 769 00cc 83F31188 	 msr basepri,r3
 770 00d0 BFF36F8F 	 isb 
 771 00d4 BFF34F8F 	 dsb 
 772              	
 773              	
 774              	 .thumb
 775 00d8 BB60     	 str r3,[r7,#8]
 776              	.L36:
 777              	.LBE115:
 778              	.LBE114:
 779              	 .loc 1 1189 0 discriminator 1
 780 00da FEE7     	 b .L36
 781              	.L35:
1190:../Dave/Generated/FREERTOS/tasks.c **** 				portYIELD_WITHIN_API();
 782              	 .loc 1 1190 0
 783 00dc 0E4B     	 ldr r3,.L37+36
 784 00de 4FF08052 	 mov r2,#268435456
 785 00e2 1A60     	 str r2,[r3]
 786              	
 787 00e4 BFF34F8F 	 dsb
 788              	
 789              	
 790 00e8 BFF36F8F 	 isb
 791              	
 792              	 .thumb
 793              	.L26:
1191:../Dave/Generated/FREERTOS/tasks.c **** 			}
1192:../Dave/Generated/FREERTOS/tasks.c **** 			else
1193:../Dave/Generated/FREERTOS/tasks.c **** 			{
1194:../Dave/Generated/FREERTOS/tasks.c **** 				mtCOVERAGE_TEST_MARKER();
1195:../Dave/Generated/FREERTOS/tasks.c **** 			}
1196:../Dave/Generated/FREERTOS/tasks.c **** 		}
1197:../Dave/Generated/FREERTOS/tasks.c **** 	}
 794              	 .loc 1 1197 0
 795 00ec 1037     	 adds r7,r7,#16
 796              	.LCFI18:
 797              	 .cfi_def_cfa_offset 8
 798 00ee BD46     	 mov sp,r7
 799              	.LCFI19:
 800              	 .cfi_def_cfa_register 13
 801              	 
 802 00f0 80BD     	 pop {r7,pc}
 803              	.L38:
 804 00f2 00BF     	 .align 2
 805              	.L37:
 806 00f4 00000000 	 .word pxCurrentTCB
 807 00f8 00000000 	 .word pxReadyTasksLists
 808 00fc 00000000 	 .word uxTopReadyPriority
 809 0100 00000000 	 .word uxTaskNumber
 810 0104 00000000 	 .word xTasksWaitingTermination
 811 0108 00000000 	 .word uxDeletedTasksWaitingCleanUp
 812 010c 00000000 	 .word uxCurrentNumberOfTasks
 813 0110 00000000 	 .word xSchedulerRunning
 814 0114 00000000 	 .word uxSchedulerSuspended
 815 0118 04ED00E0 	 .word -536810236
 816              	 .cfi_endproc
 817              	.LFE138:
 819              	 .section .text.vTaskDelayUntil,"ax",%progbits
 820              	 .align 2
 821              	 .global vTaskDelayUntil
 822              	 .thumb
 823              	 .thumb_func
 825              	vTaskDelayUntil:
 826              	.LFB139:
1198:../Dave/Generated/FREERTOS/tasks.c **** 
1199:../Dave/Generated/FREERTOS/tasks.c **** #endif /* INCLUDE_vTaskDelete */
1200:../Dave/Generated/FREERTOS/tasks.c **** /*-----------------------------------------------------------*/
1201:../Dave/Generated/FREERTOS/tasks.c **** 
1202:../Dave/Generated/FREERTOS/tasks.c **** #if ( INCLUDE_vTaskDelayUntil == 1 )
1203:../Dave/Generated/FREERTOS/tasks.c **** 
1204:../Dave/Generated/FREERTOS/tasks.c **** 	void vTaskDelayUntil( TickType_t * const pxPreviousWakeTime, const TickType_t xTimeIncrement )
1205:../Dave/Generated/FREERTOS/tasks.c **** 	{
 827              	 .loc 1 1205 0
 828              	 .cfi_startproc
 829              	 
 830              	 
 831 0000 80B5     	 push {r7,lr}
 832              	.LCFI20:
 833              	 .cfi_def_cfa_offset 8
 834              	 .cfi_offset 7,-8
 835              	 .cfi_offset 14,-4
 836 0002 8AB0     	 sub sp,sp,#40
 837              	.LCFI21:
 838              	 .cfi_def_cfa_offset 48
 839 0004 00AF     	 add r7,sp,#0
 840              	.LCFI22:
 841              	 .cfi_def_cfa_register 7
 842 0006 7860     	 str r0,[r7,#4]
 843 0008 3960     	 str r1,[r7]
1206:../Dave/Generated/FREERTOS/tasks.c **** 	TickType_t xTimeToWake;
1207:../Dave/Generated/FREERTOS/tasks.c **** 	BaseType_t xAlreadyYielded, xShouldDelay = pdFALSE;
 844              	 .loc 1 1207 0
 845 000a 0023     	 movs r3,#0
 846 000c 7B62     	 str r3,[r7,#36]
1208:../Dave/Generated/FREERTOS/tasks.c **** 
1209:../Dave/Generated/FREERTOS/tasks.c **** 		configASSERT( pxPreviousWakeTime );
 847              	 .loc 1 1209 0
 848 000e 7B68     	 ldr r3,[r7,#4]
 849 0010 002B     	 cmp r3,#0
 850 0012 09D1     	 bne .L40
 851              	.LBB116:
 852              	.LBB117:
 853              	 .loc 2 195 0 discriminator 1
 854              	
 855 0014 4FF0FC03 	 mov r3,#252
 856 0018 83F31188 	 msr basepri,r3
 857 001c BFF36F8F 	 isb 
 858 0020 BFF34F8F 	 dsb 
 859              	
 860              	
 861              	 .thumb
 862 0024 7B61     	 str r3,[r7,#20]
 863              	.L41:
 864              	.LBE117:
 865              	.LBE116:
 866              	 .loc 1 1209 0 discriminator 1
 867 0026 FEE7     	 b .L41
 868              	.L40:
1210:../Dave/Generated/FREERTOS/tasks.c **** 		configASSERT( ( xTimeIncrement > 0U ) );
 869              	 .loc 1 1210 0
 870 0028 3B68     	 ldr r3,[r7]
 871 002a 002B     	 cmp r3,#0
 872 002c 09D1     	 bne .L42
 873              	.LBB118:
 874              	.LBB119:
 875              	 .loc 2 195 0 discriminator 1
 876              	
 877 002e 4FF0FC03 	 mov r3,#252
 878 0032 83F31188 	 msr basepri,r3
 879 0036 BFF36F8F 	 isb 
 880 003a BFF34F8F 	 dsb 
 881              	
 882              	
 883              	 .thumb
 884 003e 3B61     	 str r3,[r7,#16]
 885              	.L43:
 886              	.LBE119:
 887              	.LBE118:
 888              	 .loc 1 1210 0 discriminator 2
 889 0040 FEE7     	 b .L43
 890              	.L42:
1211:../Dave/Generated/FREERTOS/tasks.c **** 		configASSERT( uxSchedulerSuspended == 0 );
 891              	 .loc 1 1211 0
 892 0042 294B     	 ldr r3,.L51
 893 0044 1B68     	 ldr r3,[r3]
 894 0046 002B     	 cmp r3,#0
 895 0048 09D0     	 beq .L44
 896              	.LBB120:
 897              	.LBB121:
 898              	 .loc 2 195 0 discriminator 1
 899              	
 900 004a 4FF0FC03 	 mov r3,#252
 901 004e 83F31188 	 msr basepri,r3
 902 0052 BFF36F8F 	 isb 
 903 0056 BFF34F8F 	 dsb 
 904              	
 905              	
 906              	 .thumb
 907 005a FB60     	 str r3,[r7,#12]
 908              	.L45:
 909              	.LBE121:
 910              	.LBE120:
 911              	 .loc 1 1211 0 discriminator 3
 912 005c FEE7     	 b .L45
 913              	.L44:
1212:../Dave/Generated/FREERTOS/tasks.c **** 
1213:../Dave/Generated/FREERTOS/tasks.c **** 		vTaskSuspendAll();
 914              	 .loc 1 1213 0
 915 005e FFF7FEFF 	 bl vTaskSuspendAll
 916              	.LBB122:
1214:../Dave/Generated/FREERTOS/tasks.c **** 		{
1215:../Dave/Generated/FREERTOS/tasks.c **** 			/* Minor optimisation.  The tick count cannot change in this
1216:../Dave/Generated/FREERTOS/tasks.c **** 			block. */
1217:../Dave/Generated/FREERTOS/tasks.c **** 			const TickType_t xConstTickCount = xTickCount;
 917              	 .loc 1 1217 0
 918 0062 224B     	 ldr r3,.L51+4
 919 0064 1B68     	 ldr r3,[r3]
 920 0066 3B62     	 str r3,[r7,#32]
1218:../Dave/Generated/FREERTOS/tasks.c **** 
1219:../Dave/Generated/FREERTOS/tasks.c **** 			/* Generate the tick time at which the task wants to wake. */
1220:../Dave/Generated/FREERTOS/tasks.c **** 			xTimeToWake = *pxPreviousWakeTime + xTimeIncrement;
 921              	 .loc 1 1220 0
 922 0068 7B68     	 ldr r3,[r7,#4]
 923 006a 1A68     	 ldr r2,[r3]
 924 006c 3B68     	 ldr r3,[r7]
 925 006e 1344     	 add r3,r3,r2
 926 0070 FB61     	 str r3,[r7,#28]
1221:../Dave/Generated/FREERTOS/tasks.c **** 
1222:../Dave/Generated/FREERTOS/tasks.c **** 			if( xConstTickCount < *pxPreviousWakeTime )
 927              	 .loc 1 1222 0
 928 0072 7B68     	 ldr r3,[r7,#4]
 929 0074 1A68     	 ldr r2,[r3]
 930 0076 3B6A     	 ldr r3,[r7,#32]
 931 0078 9A42     	 cmp r2,r3
 932 007a 0BD9     	 bls .L46
1223:../Dave/Generated/FREERTOS/tasks.c **** 			{
1224:../Dave/Generated/FREERTOS/tasks.c **** 				/* The tick count has overflowed since this function was
1225:../Dave/Generated/FREERTOS/tasks.c **** 				lasted called.  In this case the only time we should ever
1226:../Dave/Generated/FREERTOS/tasks.c **** 				actually delay is if the wake time has also	overflowed,
1227:../Dave/Generated/FREERTOS/tasks.c **** 				and the wake time is greater than the tick time.  When this
1228:../Dave/Generated/FREERTOS/tasks.c **** 				is the case it is as if neither time had overflowed. */
1229:../Dave/Generated/FREERTOS/tasks.c **** 				if( ( xTimeToWake < *pxPreviousWakeTime ) && ( xTimeToWake > xConstTickCount ) )
 933              	 .loc 1 1229 0
 934 007c 7B68     	 ldr r3,[r7,#4]
 935 007e 1A68     	 ldr r2,[r3]
 936 0080 FB69     	 ldr r3,[r7,#28]
 937 0082 9A42     	 cmp r2,r3
 938 0084 11D9     	 bls .L47
 939              	 .loc 1 1229 0 is_stmt 0 discriminator 1
 940 0086 FA69     	 ldr r2,[r7,#28]
 941 0088 3B6A     	 ldr r3,[r7,#32]
 942 008a 9A42     	 cmp r2,r3
 943 008c 0DD9     	 bls .L47
1230:../Dave/Generated/FREERTOS/tasks.c **** 				{
1231:../Dave/Generated/FREERTOS/tasks.c **** 					xShouldDelay = pdTRUE;
 944              	 .loc 1 1231 0 is_stmt 1
 945 008e 0123     	 movs r3,#1
 946 0090 7B62     	 str r3,[r7,#36]
 947 0092 0AE0     	 b .L47
 948              	.L46:
1232:../Dave/Generated/FREERTOS/tasks.c **** 				}
1233:../Dave/Generated/FREERTOS/tasks.c **** 				else
1234:../Dave/Generated/FREERTOS/tasks.c **** 				{
1235:../Dave/Generated/FREERTOS/tasks.c **** 					mtCOVERAGE_TEST_MARKER();
1236:../Dave/Generated/FREERTOS/tasks.c **** 				}
1237:../Dave/Generated/FREERTOS/tasks.c **** 			}
1238:../Dave/Generated/FREERTOS/tasks.c **** 			else
1239:../Dave/Generated/FREERTOS/tasks.c **** 			{
1240:../Dave/Generated/FREERTOS/tasks.c **** 				/* The tick time has not overflowed.  In this case we will
1241:../Dave/Generated/FREERTOS/tasks.c **** 				delay if either the wake time has overflowed, and/or the
1242:../Dave/Generated/FREERTOS/tasks.c **** 				tick time is less than the wake time. */
1243:../Dave/Generated/FREERTOS/tasks.c **** 				if( ( xTimeToWake < *pxPreviousWakeTime ) || ( xTimeToWake > xConstTickCount ) )
 949              	 .loc 1 1243 0
 950 0094 7B68     	 ldr r3,[r7,#4]
 951 0096 1A68     	 ldr r2,[r3]
 952 0098 FB69     	 ldr r3,[r7,#28]
 953 009a 9A42     	 cmp r2,r3
 954 009c 03D8     	 bhi .L48
 955              	 .loc 1 1243 0 is_stmt 0 discriminator 1
 956 009e FA69     	 ldr r2,[r7,#28]
 957 00a0 3B6A     	 ldr r3,[r7,#32]
 958 00a2 9A42     	 cmp r2,r3
 959 00a4 01D9     	 bls .L47
 960              	.L48:
1244:../Dave/Generated/FREERTOS/tasks.c **** 				{
1245:../Dave/Generated/FREERTOS/tasks.c **** 					xShouldDelay = pdTRUE;
 961              	 .loc 1 1245 0 is_stmt 1
 962 00a6 0123     	 movs r3,#1
 963 00a8 7B62     	 str r3,[r7,#36]
 964              	.L47:
1246:../Dave/Generated/FREERTOS/tasks.c **** 				}
1247:../Dave/Generated/FREERTOS/tasks.c **** 				else
1248:../Dave/Generated/FREERTOS/tasks.c **** 				{
1249:../Dave/Generated/FREERTOS/tasks.c **** 					mtCOVERAGE_TEST_MARKER();
1250:../Dave/Generated/FREERTOS/tasks.c **** 				}
1251:../Dave/Generated/FREERTOS/tasks.c **** 			}
1252:../Dave/Generated/FREERTOS/tasks.c **** 
1253:../Dave/Generated/FREERTOS/tasks.c **** 			/* Update the wake time ready for the next call. */
1254:../Dave/Generated/FREERTOS/tasks.c **** 			*pxPreviousWakeTime = xTimeToWake;
 965              	 .loc 1 1254 0
 966 00aa 7B68     	 ldr r3,[r7,#4]
 967 00ac FA69     	 ldr r2,[r7,#28]
 968 00ae 1A60     	 str r2,[r3]
1255:../Dave/Generated/FREERTOS/tasks.c **** 
1256:../Dave/Generated/FREERTOS/tasks.c **** 			if( xShouldDelay != pdFALSE )
 969              	 .loc 1 1256 0
 970 00b0 7B6A     	 ldr r3,[r7,#36]
 971 00b2 002B     	 cmp r3,#0
 972 00b4 06D0     	 beq .L49
1257:../Dave/Generated/FREERTOS/tasks.c **** 			{
1258:../Dave/Generated/FREERTOS/tasks.c **** 				traceTASK_DELAY_UNTIL( xTimeToWake );
1259:../Dave/Generated/FREERTOS/tasks.c **** 
1260:../Dave/Generated/FREERTOS/tasks.c **** 				/* prvAddCurrentTaskToDelayedList() needs the block time, not
1261:../Dave/Generated/FREERTOS/tasks.c **** 				the time to wake, so subtract the current tick count. */
1262:../Dave/Generated/FREERTOS/tasks.c **** 				prvAddCurrentTaskToDelayedList( xTimeToWake - xConstTickCount, pdFALSE );
 973              	 .loc 1 1262 0
 974 00b6 FA69     	 ldr r2,[r7,#28]
 975 00b8 3B6A     	 ldr r3,[r7,#32]
 976 00ba D31A     	 subs r3,r2,r3
 977 00bc 1846     	 mov r0,r3
 978 00be 0021     	 movs r1,#0
 979 00c0 FFF7FEFF 	 bl prvAddCurrentTaskToDelayedList
 980              	.L49:
 981              	.LBE122:
1263:../Dave/Generated/FREERTOS/tasks.c **** 			}
1264:../Dave/Generated/FREERTOS/tasks.c **** 			else
1265:../Dave/Generated/FREERTOS/tasks.c **** 			{
1266:../Dave/Generated/FREERTOS/tasks.c **** 				mtCOVERAGE_TEST_MARKER();
1267:../Dave/Generated/FREERTOS/tasks.c **** 			}
1268:../Dave/Generated/FREERTOS/tasks.c **** 		}
1269:../Dave/Generated/FREERTOS/tasks.c **** 		xAlreadyYielded = xTaskResumeAll();
 982              	 .loc 1 1269 0
 983 00c4 FFF7FEFF 	 bl xTaskResumeAll
 984 00c8 B861     	 str r0,[r7,#24]
1270:../Dave/Generated/FREERTOS/tasks.c **** 
1271:../Dave/Generated/FREERTOS/tasks.c **** 		/* Force a reschedule if xTaskResumeAll has not already done so, we may
1272:../Dave/Generated/FREERTOS/tasks.c **** 		have put ourselves to sleep. */
1273:../Dave/Generated/FREERTOS/tasks.c **** 		if( xAlreadyYielded == pdFALSE )
 985              	 .loc 1 1273 0
 986 00ca BB69     	 ldr r3,[r7,#24]
 987 00cc 002B     	 cmp r3,#0
 988 00ce 07D1     	 bne .L39
1274:../Dave/Generated/FREERTOS/tasks.c **** 		{
1275:../Dave/Generated/FREERTOS/tasks.c **** 			portYIELD_WITHIN_API();
 989              	 .loc 1 1275 0
 990 00d0 074B     	 ldr r3,.L51+8
 991 00d2 4FF08052 	 mov r2,#268435456
 992 00d6 1A60     	 str r2,[r3]
 993              	
 994 00d8 BFF34F8F 	 dsb
 995              	
 996              	
 997 00dc BFF36F8F 	 isb
 998              	
 999              	 .thumb
 1000              	.L39:
1276:../Dave/Generated/FREERTOS/tasks.c **** 		}
1277:../Dave/Generated/FREERTOS/tasks.c **** 		else
1278:../Dave/Generated/FREERTOS/tasks.c **** 		{
1279:../Dave/Generated/FREERTOS/tasks.c **** 			mtCOVERAGE_TEST_MARKER();
1280:../Dave/Generated/FREERTOS/tasks.c **** 		}
1281:../Dave/Generated/FREERTOS/tasks.c **** 	}
 1001              	 .loc 1 1281 0
 1002 00e0 2837     	 adds r7,r7,#40
 1003              	.LCFI23:
 1004              	 .cfi_def_cfa_offset 8
 1005 00e2 BD46     	 mov sp,r7
 1006              	.LCFI24:
 1007              	 .cfi_def_cfa_register 13
 1008              	 
 1009 00e4 80BD     	 pop {r7,pc}
 1010              	.L52:
 1011 00e6 00BF     	 .align 2
 1012              	.L51:
 1013 00e8 00000000 	 .word uxSchedulerSuspended
 1014 00ec 00000000 	 .word xTickCount
 1015 00f0 04ED00E0 	 .word -536810236
 1016              	 .cfi_endproc
 1017              	.LFE139:
 1019              	 .section .text.vTaskDelay,"ax",%progbits
 1020              	 .align 2
 1021              	 .global vTaskDelay
 1022              	 .thumb
 1023              	 .thumb_func
 1025              	vTaskDelay:
 1026              	.LFB140:
1282:../Dave/Generated/FREERTOS/tasks.c **** 
1283:../Dave/Generated/FREERTOS/tasks.c **** #endif /* INCLUDE_vTaskDelayUntil */
1284:../Dave/Generated/FREERTOS/tasks.c **** /*-----------------------------------------------------------*/
1285:../Dave/Generated/FREERTOS/tasks.c **** 
1286:../Dave/Generated/FREERTOS/tasks.c **** #if ( INCLUDE_vTaskDelay == 1 )
1287:../Dave/Generated/FREERTOS/tasks.c **** 
1288:../Dave/Generated/FREERTOS/tasks.c **** 	void vTaskDelay( const TickType_t xTicksToDelay )
1289:../Dave/Generated/FREERTOS/tasks.c **** 	{
 1027              	 .loc 1 1289 0
 1028              	 .cfi_startproc
 1029              	 
 1030              	 
 1031 0000 80B5     	 push {r7,lr}
 1032              	.LCFI25:
 1033              	 .cfi_def_cfa_offset 8
 1034              	 .cfi_offset 7,-8
 1035              	 .cfi_offset 14,-4
 1036 0002 84B0     	 sub sp,sp,#16
 1037              	.LCFI26:
 1038              	 .cfi_def_cfa_offset 24
 1039 0004 00AF     	 add r7,sp,#0
 1040              	.LCFI27:
 1041              	 .cfi_def_cfa_register 7
 1042 0006 7860     	 str r0,[r7,#4]
1290:../Dave/Generated/FREERTOS/tasks.c **** 	BaseType_t xAlreadyYielded = pdFALSE;
 1043              	 .loc 1 1290 0
 1044 0008 0023     	 movs r3,#0
 1045 000a FB60     	 str r3,[r7,#12]
1291:../Dave/Generated/FREERTOS/tasks.c **** 
1292:../Dave/Generated/FREERTOS/tasks.c **** 		/* A delay time of zero just forces a reschedule. */
1293:../Dave/Generated/FREERTOS/tasks.c **** 		if( xTicksToDelay > ( TickType_t ) 0U )
 1046              	 .loc 1 1293 0
 1047 000c 7B68     	 ldr r3,[r7,#4]
 1048 000e 002B     	 cmp r3,#0
 1049 0010 16D0     	 beq .L54
1294:../Dave/Generated/FREERTOS/tasks.c **** 		{
1295:../Dave/Generated/FREERTOS/tasks.c **** 			configASSERT( uxSchedulerSuspended == 0 );
 1050              	 .loc 1 1295 0
 1051 0012 124B     	 ldr r3,.L58
 1052 0014 1B68     	 ldr r3,[r3]
 1053 0016 002B     	 cmp r3,#0
 1054 0018 09D0     	 beq .L55
 1055              	.LBB123:
 1056              	.LBB124:
 1057              	 .loc 2 195 0 discriminator 1
 1058              	
 1059 001a 4FF0FC03 	 mov r3,#252
 1060 001e 83F31188 	 msr basepri,r3
 1061 0022 BFF36F8F 	 isb 
 1062 0026 BFF34F8F 	 dsb 
 1063              	
 1064              	
 1065              	 .thumb
 1066 002a BB60     	 str r3,[r7,#8]
 1067              	.L56:
 1068              	.LBE124:
 1069              	.LBE123:
 1070              	 .loc 1 1295 0 discriminator 1
 1071 002c FEE7     	 b .L56
 1072              	.L55:
1296:../Dave/Generated/FREERTOS/tasks.c **** 			vTaskSuspendAll();
 1073              	 .loc 1 1296 0
 1074 002e FFF7FEFF 	 bl vTaskSuspendAll
1297:../Dave/Generated/FREERTOS/tasks.c **** 			{
1298:../Dave/Generated/FREERTOS/tasks.c **** 				traceTASK_DELAY();
1299:../Dave/Generated/FREERTOS/tasks.c **** 
1300:../Dave/Generated/FREERTOS/tasks.c **** 				/* A task that is removed from the event list while the
1301:../Dave/Generated/FREERTOS/tasks.c **** 				scheduler is suspended will not get placed in the ready
1302:../Dave/Generated/FREERTOS/tasks.c **** 				list or removed from the blocked list until the scheduler
1303:../Dave/Generated/FREERTOS/tasks.c **** 				is resumed.
1304:../Dave/Generated/FREERTOS/tasks.c **** 
1305:../Dave/Generated/FREERTOS/tasks.c **** 				This task cannot be in an event list as it is the currently
1306:../Dave/Generated/FREERTOS/tasks.c **** 				executing task. */
1307:../Dave/Generated/FREERTOS/tasks.c **** 				prvAddCurrentTaskToDelayedList( xTicksToDelay, pdFALSE );
 1075              	 .loc 1 1307 0
 1076 0032 7868     	 ldr r0,[r7,#4]
 1077 0034 0021     	 movs r1,#0
 1078 0036 FFF7FEFF 	 bl prvAddCurrentTaskToDelayedList
1308:../Dave/Generated/FREERTOS/tasks.c **** 			}
1309:../Dave/Generated/FREERTOS/tasks.c **** 			xAlreadyYielded = xTaskResumeAll();
 1079              	 .loc 1 1309 0
 1080 003a FFF7FEFF 	 bl xTaskResumeAll
 1081 003e F860     	 str r0,[r7,#12]
 1082              	.L54:
1310:../Dave/Generated/FREERTOS/tasks.c **** 		}
1311:../Dave/Generated/FREERTOS/tasks.c **** 		else
1312:../Dave/Generated/FREERTOS/tasks.c **** 		{
1313:../Dave/Generated/FREERTOS/tasks.c **** 			mtCOVERAGE_TEST_MARKER();
1314:../Dave/Generated/FREERTOS/tasks.c **** 		}
1315:../Dave/Generated/FREERTOS/tasks.c **** 
1316:../Dave/Generated/FREERTOS/tasks.c **** 		/* Force a reschedule if xTaskResumeAll has not already done so, we may
1317:../Dave/Generated/FREERTOS/tasks.c **** 		have put ourselves to sleep. */
1318:../Dave/Generated/FREERTOS/tasks.c **** 		if( xAlreadyYielded == pdFALSE )
 1083              	 .loc 1 1318 0
 1084 0040 FB68     	 ldr r3,[r7,#12]
 1085 0042 002B     	 cmp r3,#0
 1086 0044 07D1     	 bne .L53
1319:../Dave/Generated/FREERTOS/tasks.c **** 		{
1320:../Dave/Generated/FREERTOS/tasks.c **** 			portYIELD_WITHIN_API();
 1087              	 .loc 1 1320 0
 1088 0046 064B     	 ldr r3,.L58+4
 1089 0048 4FF08052 	 mov r2,#268435456
 1090 004c 1A60     	 str r2,[r3]
 1091              	
 1092 004e BFF34F8F 	 dsb
 1093              	
 1094              	
 1095 0052 BFF36F8F 	 isb
 1096              	
 1097              	 .thumb
 1098              	.L53:
1321:../Dave/Generated/FREERTOS/tasks.c **** 		}
1322:../Dave/Generated/FREERTOS/tasks.c **** 		else
1323:../Dave/Generated/FREERTOS/tasks.c **** 		{
1324:../Dave/Generated/FREERTOS/tasks.c **** 			mtCOVERAGE_TEST_MARKER();
1325:../Dave/Generated/FREERTOS/tasks.c **** 		}
1326:../Dave/Generated/FREERTOS/tasks.c **** 	}
 1099              	 .loc 1 1326 0
 1100 0056 1037     	 adds r7,r7,#16
 1101              	.LCFI28:
 1102              	 .cfi_def_cfa_offset 8
 1103 0058 BD46     	 mov sp,r7
 1104              	.LCFI29:
 1105              	 .cfi_def_cfa_register 13
 1106              	 
 1107 005a 80BD     	 pop {r7,pc}
 1108              	.L59:
 1109              	 .align 2
 1110              	.L58:
 1111 005c 00000000 	 .word uxSchedulerSuspended
 1112 0060 04ED00E0 	 .word -536810236
 1113              	 .cfi_endproc
 1114              	.LFE140:
 1116              	 .section .text.eTaskGetState,"ax",%progbits
 1117              	 .align 2
 1118              	 .global eTaskGetState
 1119              	 .thumb
 1120              	 .thumb_func
 1122              	eTaskGetState:
 1123              	.LFB141:
1327:../Dave/Generated/FREERTOS/tasks.c **** 
1328:../Dave/Generated/FREERTOS/tasks.c **** #endif /* INCLUDE_vTaskDelay */
1329:../Dave/Generated/FREERTOS/tasks.c **** /*-----------------------------------------------------------*/
1330:../Dave/Generated/FREERTOS/tasks.c **** 
1331:../Dave/Generated/FREERTOS/tasks.c **** #if( ( INCLUDE_eTaskGetState == 1 ) || ( configUSE_TRACE_FACILITY == 1 ) )
1332:../Dave/Generated/FREERTOS/tasks.c **** 
1333:../Dave/Generated/FREERTOS/tasks.c **** 	eTaskState eTaskGetState( TaskHandle_t xTask )
1334:../Dave/Generated/FREERTOS/tasks.c **** 	{
 1124              	 .loc 1 1334 0
 1125              	 .cfi_startproc
 1126              	 
 1127              	 
 1128 0000 80B5     	 push {r7,lr}
 1129              	.LCFI30:
 1130              	 .cfi_def_cfa_offset 8
 1131              	 .cfi_offset 7,-8
 1132              	 .cfi_offset 14,-4
 1133 0002 86B0     	 sub sp,sp,#24
 1134              	.LCFI31:
 1135              	 .cfi_def_cfa_offset 32
 1136 0004 00AF     	 add r7,sp,#0
 1137              	.LCFI32:
 1138              	 .cfi_def_cfa_register 7
 1139 0006 7860     	 str r0,[r7,#4]
1335:../Dave/Generated/FREERTOS/tasks.c **** 	eTaskState eReturn;
1336:../Dave/Generated/FREERTOS/tasks.c **** 	List_t *pxStateList;
1337:../Dave/Generated/FREERTOS/tasks.c **** 	const TCB_t * const pxTCB = ( TCB_t * ) xTask;
 1140              	 .loc 1 1337 0
 1141 0008 7B68     	 ldr r3,[r7,#4]
 1142 000a 3B61     	 str r3,[r7,#16]
1338:../Dave/Generated/FREERTOS/tasks.c **** 
1339:../Dave/Generated/FREERTOS/tasks.c **** 		configASSERT( pxTCB );
 1143              	 .loc 1 1339 0
 1144 000c 3B69     	 ldr r3,[r7,#16]
 1145 000e 002B     	 cmp r3,#0
 1146 0010 09D1     	 bne .L61
 1147              	.LBB125:
 1148              	.LBB126:
 1149              	 .loc 2 195 0 discriminator 1
 1150              	
 1151 0012 4FF0FC03 	 mov r3,#252
 1152 0016 83F31188 	 msr basepri,r3
 1153 001a BFF36F8F 	 isb 
 1154 001e BFF34F8F 	 dsb 
 1155              	
 1156              	
 1157              	 .thumb
 1158 0022 BB60     	 str r3,[r7,#8]
 1159              	.L62:
 1160              	.LBE126:
 1161              	.LBE125:
 1162              	 .loc 1 1339 0 discriminator 1
 1163 0024 FEE7     	 b .L62
 1164              	.L61:
1340:../Dave/Generated/FREERTOS/tasks.c **** 
1341:../Dave/Generated/FREERTOS/tasks.c **** 		if( pxTCB == pxCurrentTCB )
 1165              	 .loc 1 1341 0
 1166 0026 1D4B     	 ldr r3,.L73
 1167 0028 1B68     	 ldr r3,[r3]
 1168 002a 3A69     	 ldr r2,[r7,#16]
 1169 002c 9A42     	 cmp r2,r3
 1170 002e 02D1     	 bne .L63
1342:../Dave/Generated/FREERTOS/tasks.c **** 		{
1343:../Dave/Generated/FREERTOS/tasks.c **** 			/* The task calling this function is querying its own state. */
1344:../Dave/Generated/FREERTOS/tasks.c **** 			eReturn = eRunning;
 1171              	 .loc 1 1344 0
 1172 0030 0023     	 movs r3,#0
 1173 0032 FB75     	 strb r3,[r7,#23]
 1174 0034 2DE0     	 b .L64
 1175              	.L63:
1345:../Dave/Generated/FREERTOS/tasks.c **** 		}
1346:../Dave/Generated/FREERTOS/tasks.c **** 		else
1347:../Dave/Generated/FREERTOS/tasks.c **** 		{
1348:../Dave/Generated/FREERTOS/tasks.c **** 			taskENTER_CRITICAL();
 1176              	 .loc 1 1348 0
 1177 0036 FFF7FEFF 	 bl vPortEnterCritical
1349:../Dave/Generated/FREERTOS/tasks.c **** 			{
1350:../Dave/Generated/FREERTOS/tasks.c **** 				pxStateList = ( List_t * ) listLIST_ITEM_CONTAINER( &( pxTCB->xStateListItem ) );
 1178              	 .loc 1 1350 0
 1179 003a 3B69     	 ldr r3,[r7,#16]
 1180 003c 5B69     	 ldr r3,[r3,#20]
 1181 003e FB60     	 str r3,[r7,#12]
1351:../Dave/Generated/FREERTOS/tasks.c **** 			}
1352:../Dave/Generated/FREERTOS/tasks.c **** 			taskEXIT_CRITICAL();
 1182              	 .loc 1 1352 0
 1183 0040 FFF7FEFF 	 bl vPortExitCritical
1353:../Dave/Generated/FREERTOS/tasks.c **** 
1354:../Dave/Generated/FREERTOS/tasks.c **** 			if( ( pxStateList == pxDelayedTaskList ) || ( pxStateList == pxOverflowDelayedTaskList ) )
 1184              	 .loc 1 1354 0
 1185 0044 164B     	 ldr r3,.L73+4
 1186 0046 1B68     	 ldr r3,[r3]
 1187 0048 FA68     	 ldr r2,[r7,#12]
 1188 004a 9A42     	 cmp r2,r3
 1189 004c 04D0     	 beq .L65
 1190              	 .loc 1 1354 0 is_stmt 0 discriminator 1
 1191 004e 154B     	 ldr r3,.L73+8
 1192 0050 1B68     	 ldr r3,[r3]
 1193 0052 FA68     	 ldr r2,[r7,#12]
 1194 0054 9A42     	 cmp r2,r3
 1195 0056 02D1     	 bne .L66
 1196              	.L65:
1355:../Dave/Generated/FREERTOS/tasks.c **** 			{
1356:../Dave/Generated/FREERTOS/tasks.c **** 				/* The task being queried is referenced from one of the Blocked
1357:../Dave/Generated/FREERTOS/tasks.c **** 				lists. */
1358:../Dave/Generated/FREERTOS/tasks.c **** 				eReturn = eBlocked;
 1197              	 .loc 1 1358 0 is_stmt 1
 1198 0058 0223     	 movs r3,#2
 1199 005a FB75     	 strb r3,[r7,#23]
 1200 005c 19E0     	 b .L64
 1201              	.L66:
1359:../Dave/Generated/FREERTOS/tasks.c **** 			}
1360:../Dave/Generated/FREERTOS/tasks.c **** 
1361:../Dave/Generated/FREERTOS/tasks.c **** 			#if ( INCLUDE_vTaskSuspend == 1 )
1362:../Dave/Generated/FREERTOS/tasks.c **** 				else if( pxStateList == &xSuspendedTaskList )
 1202              	 .loc 1 1362 0
 1203 005e FB68     	 ldr r3,[r7,#12]
 1204 0060 114A     	 ldr r2,.L73+12
 1205 0062 9342     	 cmp r3,r2
 1206 0064 09D1     	 bne .L67
1363:../Dave/Generated/FREERTOS/tasks.c **** 				{
1364:../Dave/Generated/FREERTOS/tasks.c **** 					/* The task being queried is referenced from the suspended
1365:../Dave/Generated/FREERTOS/tasks.c **** 					list.  Is it genuinely suspended or is it block
1366:../Dave/Generated/FREERTOS/tasks.c **** 					indefinitely? */
1367:../Dave/Generated/FREERTOS/tasks.c **** 					if( listLIST_ITEM_CONTAINER( &( pxTCB->xEventListItem ) ) == NULL )
 1207              	 .loc 1 1367 0
 1208 0066 3B69     	 ldr r3,[r7,#16]
 1209 0068 9B6A     	 ldr r3,[r3,#40]
 1210 006a 002B     	 cmp r3,#0
 1211 006c 02D1     	 bne .L68
1368:../Dave/Generated/FREERTOS/tasks.c **** 					{
1369:../Dave/Generated/FREERTOS/tasks.c **** 						eReturn = eSuspended;
 1212              	 .loc 1 1369 0
 1213 006e 0323     	 movs r3,#3
 1214 0070 FB75     	 strb r3,[r7,#23]
 1215 0072 0EE0     	 b .L64
 1216              	.L68:
1370:../Dave/Generated/FREERTOS/tasks.c **** 					}
1371:../Dave/Generated/FREERTOS/tasks.c **** 					else
1372:../Dave/Generated/FREERTOS/tasks.c **** 					{
1373:../Dave/Generated/FREERTOS/tasks.c **** 						eReturn = eBlocked;
 1217              	 .loc 1 1373 0
 1218 0074 0223     	 movs r3,#2
 1219 0076 FB75     	 strb r3,[r7,#23]
 1220 0078 0BE0     	 b .L64
 1221              	.L67:
1374:../Dave/Generated/FREERTOS/tasks.c **** 					}
1375:../Dave/Generated/FREERTOS/tasks.c **** 				}
1376:../Dave/Generated/FREERTOS/tasks.c **** 			#endif
1377:../Dave/Generated/FREERTOS/tasks.c **** 
1378:../Dave/Generated/FREERTOS/tasks.c **** 			#if ( INCLUDE_vTaskDelete == 1 )
1379:../Dave/Generated/FREERTOS/tasks.c **** 				else if( ( pxStateList == &xTasksWaitingTermination ) || ( pxStateList == NULL ) )
 1222              	 .loc 1 1379 0
 1223 007a FB68     	 ldr r3,[r7,#12]
 1224 007c 0B4A     	 ldr r2,.L73+16
 1225 007e 9342     	 cmp r3,r2
 1226 0080 02D0     	 beq .L70
 1227              	 .loc 1 1379 0 is_stmt 0 discriminator 1
 1228 0082 FB68     	 ldr r3,[r7,#12]
 1229 0084 002B     	 cmp r3,#0
 1230 0086 02D1     	 bne .L71
 1231              	.L70:
1380:../Dave/Generated/FREERTOS/tasks.c **** 				{
1381:../Dave/Generated/FREERTOS/tasks.c **** 					/* The task being queried is referenced from the deleted
1382:../Dave/Generated/FREERTOS/tasks.c **** 					tasks list, or it is not referenced from any lists at
1383:../Dave/Generated/FREERTOS/tasks.c **** 					all. */
1384:../Dave/Generated/FREERTOS/tasks.c **** 					eReturn = eDeleted;
 1232              	 .loc 1 1384 0 is_stmt 1
 1233 0088 0423     	 movs r3,#4
 1234 008a FB75     	 strb r3,[r7,#23]
 1235 008c 01E0     	 b .L64
 1236              	.L71:
1385:../Dave/Generated/FREERTOS/tasks.c **** 				}
1386:../Dave/Generated/FREERTOS/tasks.c **** 			#endif
1387:../Dave/Generated/FREERTOS/tasks.c **** 
1388:../Dave/Generated/FREERTOS/tasks.c **** 			else /*lint !e525 Negative indentation is intended to make use of pre-processor clearer. */
1389:../Dave/Generated/FREERTOS/tasks.c **** 			{
1390:../Dave/Generated/FREERTOS/tasks.c **** 				/* If the task is not in any other state, it must be in the
1391:../Dave/Generated/FREERTOS/tasks.c **** 				Ready (including pending ready) state. */
1392:../Dave/Generated/FREERTOS/tasks.c **** 				eReturn = eReady;
 1237              	 .loc 1 1392 0
 1238 008e 0123     	 movs r3,#1
 1239 0090 FB75     	 strb r3,[r7,#23]
 1240              	.L64:
1393:../Dave/Generated/FREERTOS/tasks.c **** 			}
1394:../Dave/Generated/FREERTOS/tasks.c **** 		}
1395:../Dave/Generated/FREERTOS/tasks.c **** 
1396:../Dave/Generated/FREERTOS/tasks.c **** 		return eReturn;
 1241              	 .loc 1 1396 0
 1242 0092 FB7D     	 ldrb r3,[r7,#23]
1397:../Dave/Generated/FREERTOS/tasks.c **** 	} /*lint !e818 xTask cannot be a pointer to const because it is a typedef. */
 1243              	 .loc 1 1397 0
 1244 0094 1846     	 mov r0,r3
 1245 0096 1837     	 adds r7,r7,#24
 1246              	.LCFI33:
 1247              	 .cfi_def_cfa_offset 8
 1248 0098 BD46     	 mov sp,r7
 1249              	.LCFI34:
 1250              	 .cfi_def_cfa_register 13
 1251              	 
 1252 009a 80BD     	 pop {r7,pc}
 1253              	.L74:
 1254              	 .align 2
 1255              	.L73:
 1256 009c 00000000 	 .word pxCurrentTCB
 1257 00a0 00000000 	 .word pxDelayedTaskList
 1258 00a4 00000000 	 .word pxOverflowDelayedTaskList
 1259 00a8 00000000 	 .word xSuspendedTaskList
 1260 00ac 00000000 	 .word xTasksWaitingTermination
 1261              	 .cfi_endproc
 1262              	.LFE141:
 1264              	 .section .text.uxTaskPriorityGet,"ax",%progbits
 1265              	 .align 2
 1266              	 .global uxTaskPriorityGet
 1267              	 .thumb
 1268              	 .thumb_func
 1270              	uxTaskPriorityGet:
 1271              	.LFB142:
1398:../Dave/Generated/FREERTOS/tasks.c **** 
1399:../Dave/Generated/FREERTOS/tasks.c **** #endif /* INCLUDE_eTaskGetState */
1400:../Dave/Generated/FREERTOS/tasks.c **** /*-----------------------------------------------------------*/
1401:../Dave/Generated/FREERTOS/tasks.c **** 
1402:../Dave/Generated/FREERTOS/tasks.c **** #if ( INCLUDE_uxTaskPriorityGet == 1 )
1403:../Dave/Generated/FREERTOS/tasks.c **** 
1404:../Dave/Generated/FREERTOS/tasks.c **** 	UBaseType_t uxTaskPriorityGet( TaskHandle_t xTask )
1405:../Dave/Generated/FREERTOS/tasks.c **** 	{
 1272              	 .loc 1 1405 0
 1273              	 .cfi_startproc
 1274              	 
 1275              	 
 1276 0000 80B5     	 push {r7,lr}
 1277              	.LCFI35:
 1278              	 .cfi_def_cfa_offset 8
 1279              	 .cfi_offset 7,-8
 1280              	 .cfi_offset 14,-4
 1281 0002 84B0     	 sub sp,sp,#16
 1282              	.LCFI36:
 1283              	 .cfi_def_cfa_offset 24
 1284 0004 00AF     	 add r7,sp,#0
 1285              	.LCFI37:
 1286              	 .cfi_def_cfa_register 7
 1287 0006 7860     	 str r0,[r7,#4]
1406:../Dave/Generated/FREERTOS/tasks.c **** 	TCB_t *pxTCB;
1407:../Dave/Generated/FREERTOS/tasks.c **** 	UBaseType_t uxReturn;
1408:../Dave/Generated/FREERTOS/tasks.c **** 
1409:../Dave/Generated/FREERTOS/tasks.c **** 		taskENTER_CRITICAL();
 1288              	 .loc 1 1409 0
 1289 0008 FFF7FEFF 	 bl vPortEnterCritical
1410:../Dave/Generated/FREERTOS/tasks.c **** 		{
1411:../Dave/Generated/FREERTOS/tasks.c **** 			/* If null is passed in here then it is the priority of the that
1412:../Dave/Generated/FREERTOS/tasks.c **** 			called uxTaskPriorityGet() that is being queried. */
1413:../Dave/Generated/FREERTOS/tasks.c **** 			pxTCB = prvGetTCBFromHandle( xTask );
 1290              	 .loc 1 1413 0
 1291 000c 7B68     	 ldr r3,[r7,#4]
 1292 000e 002B     	 cmp r3,#0
 1293 0010 02D1     	 bne .L76
 1294              	 .loc 1 1413 0 is_stmt 0 discriminator 1
 1295 0012 074B     	 ldr r3,.L79
 1296 0014 1B68     	 ldr r3,[r3]
 1297 0016 00E0     	 b .L77
 1298              	.L76:
 1299              	 .loc 1 1413 0 discriminator 2
 1300 0018 7B68     	 ldr r3,[r7,#4]
 1301              	.L77:
 1302              	 .loc 1 1413 0 discriminator 4
 1303 001a FB60     	 str r3,[r7,#12]
1414:../Dave/Generated/FREERTOS/tasks.c **** 			uxReturn = pxTCB->uxPriority;
 1304              	 .loc 1 1414 0 is_stmt 1 discriminator 4
 1305 001c FB68     	 ldr r3,[r7,#12]
 1306 001e DB6A     	 ldr r3,[r3,#44]
 1307 0020 BB60     	 str r3,[r7,#8]
1415:../Dave/Generated/FREERTOS/tasks.c **** 		}
1416:../Dave/Generated/FREERTOS/tasks.c **** 		taskEXIT_CRITICAL();
 1308              	 .loc 1 1416 0 discriminator 4
 1309 0022 FFF7FEFF 	 bl vPortExitCritical
1417:../Dave/Generated/FREERTOS/tasks.c **** 
1418:../Dave/Generated/FREERTOS/tasks.c **** 		return uxReturn;
 1310              	 .loc 1 1418 0 discriminator 4
 1311 0026 BB68     	 ldr r3,[r7,#8]
1419:../Dave/Generated/FREERTOS/tasks.c **** 	}
 1312              	 .loc 1 1419 0 discriminator 4
 1313 0028 1846     	 mov r0,r3
 1314 002a 1037     	 adds r7,r7,#16
 1315              	.LCFI38:
 1316              	 .cfi_def_cfa_offset 8
 1317 002c BD46     	 mov sp,r7
 1318              	.LCFI39:
 1319              	 .cfi_def_cfa_register 13
 1320              	 
 1321 002e 80BD     	 pop {r7,pc}
 1322              	.L80:
 1323              	 .align 2
 1324              	.L79:
 1325 0030 00000000 	 .word pxCurrentTCB
 1326              	 .cfi_endproc
 1327              	.LFE142:
 1329              	 .section .text.uxTaskPriorityGetFromISR,"ax",%progbits
 1330              	 .align 2
 1331              	 .global uxTaskPriorityGetFromISR
 1332              	 .thumb
 1333              	 .thumb_func
 1335              	uxTaskPriorityGetFromISR:
 1336              	.LFB143:
1420:../Dave/Generated/FREERTOS/tasks.c **** 
1421:../Dave/Generated/FREERTOS/tasks.c **** #endif /* INCLUDE_uxTaskPriorityGet */
1422:../Dave/Generated/FREERTOS/tasks.c **** /*-----------------------------------------------------------*/
1423:../Dave/Generated/FREERTOS/tasks.c **** 
1424:../Dave/Generated/FREERTOS/tasks.c **** #if ( INCLUDE_uxTaskPriorityGet == 1 )
1425:../Dave/Generated/FREERTOS/tasks.c **** 
1426:../Dave/Generated/FREERTOS/tasks.c **** 	UBaseType_t uxTaskPriorityGetFromISR( TaskHandle_t xTask )
1427:../Dave/Generated/FREERTOS/tasks.c **** 	{
 1337              	 .loc 1 1427 0
 1338              	 .cfi_startproc
 1339              	 
 1340              	 
 1341 0000 80B5     	 push {r7,lr}
 1342              	.LCFI40:
 1343              	 .cfi_def_cfa_offset 8
 1344              	 .cfi_offset 7,-8
 1345              	 .cfi_offset 14,-4
 1346 0002 88B0     	 sub sp,sp,#32
 1347              	.LCFI41:
 1348              	 .cfi_def_cfa_offset 40
 1349 0004 00AF     	 add r7,sp,#0
 1350              	.LCFI42:
 1351              	 .cfi_def_cfa_register 7
 1352 0006 7860     	 str r0,[r7,#4]
1428:../Dave/Generated/FREERTOS/tasks.c **** 	TCB_t *pxTCB;
1429:../Dave/Generated/FREERTOS/tasks.c **** 	UBaseType_t uxReturn, uxSavedInterruptState;
1430:../Dave/Generated/FREERTOS/tasks.c **** 
1431:../Dave/Generated/FREERTOS/tasks.c **** 		/* RTOS ports that support interrupt nesting have the concept of a
1432:../Dave/Generated/FREERTOS/tasks.c **** 		maximum	system call (or maximum API call) interrupt priority.
1433:../Dave/Generated/FREERTOS/tasks.c **** 		Interrupts that are	above the maximum system call priority are keep
1434:../Dave/Generated/FREERTOS/tasks.c **** 		permanently enabled, even when the RTOS kernel is in a critical section,
1435:../Dave/Generated/FREERTOS/tasks.c **** 		but cannot make any calls to FreeRTOS API functions.  If configASSERT()
1436:../Dave/Generated/FREERTOS/tasks.c **** 		is defined in FreeRTOSConfig.h then
1437:../Dave/Generated/FREERTOS/tasks.c **** 		portASSERT_IF_INTERRUPT_PRIORITY_INVALID() will result in an assertion
1438:../Dave/Generated/FREERTOS/tasks.c **** 		failure if a FreeRTOS API function is called from an interrupt that has
1439:../Dave/Generated/FREERTOS/tasks.c **** 		been assigned a priority above the configured maximum system call
1440:../Dave/Generated/FREERTOS/tasks.c **** 		priority.  Only FreeRTOS functions that end in FromISR can be called
1441:../Dave/Generated/FREERTOS/tasks.c **** 		from interrupts	that have been assigned a priority at or (logically)
1442:../Dave/Generated/FREERTOS/tasks.c **** 		below the maximum system call interrupt priority.  FreeRTOS maintains a
1443:../Dave/Generated/FREERTOS/tasks.c **** 		separate interrupt safe API to ensure interrupt entry is as fast and as
1444:../Dave/Generated/FREERTOS/tasks.c **** 		simple as possible.  More information (albeit Cortex-M specific) is
1445:../Dave/Generated/FREERTOS/tasks.c **** 		provided on the following link:
1446:../Dave/Generated/FREERTOS/tasks.c **** 		http://www.freertos.org/RTOS-Cortex-M3-M4.html */
1447:../Dave/Generated/FREERTOS/tasks.c **** 		portASSERT_IF_INTERRUPT_PRIORITY_INVALID();
 1353              	 .loc 1 1447 0
 1354 0008 FFF7FEFF 	 bl vPortValidateInterruptPriority
 1355              	.LBB127:
 1356              	.LBB128:
 196:../Dave/Generated/FREERTOS/portable/GCC/portmacro.h **** 	(
 197:../Dave/Generated/FREERTOS/portable/GCC/portmacro.h **** 		"	mov %0, %1												\n"	\
 198:../Dave/Generated/FREERTOS/portable/GCC/portmacro.h **** 		"	msr basepri, %0											\n" \
 199:../Dave/Generated/FREERTOS/portable/GCC/portmacro.h **** 		"	isb														\n" \
 200:../Dave/Generated/FREERTOS/portable/GCC/portmacro.h **** 		"	dsb														\n" \
 201:../Dave/Generated/FREERTOS/portable/GCC/portmacro.h **** 		:"=r" (ulNewBASEPRI) : "i" ( configMAX_SYSCALL_INTERRUPT_PRIORITY ) : "memory"
 202:../Dave/Generated/FREERTOS/portable/GCC/portmacro.h **** 	);
 203:../Dave/Generated/FREERTOS/portable/GCC/portmacro.h **** }
 204:../Dave/Generated/FREERTOS/portable/GCC/portmacro.h **** 
 205:../Dave/Generated/FREERTOS/portable/GCC/portmacro.h **** /*-----------------------------------------------------------*/
 206:../Dave/Generated/FREERTOS/portable/GCC/portmacro.h **** 
 207:../Dave/Generated/FREERTOS/portable/GCC/portmacro.h **** portFORCE_INLINE static uint32_t ulPortRaiseBASEPRI( void )
 208:../Dave/Generated/FREERTOS/portable/GCC/portmacro.h **** {
 209:../Dave/Generated/FREERTOS/portable/GCC/portmacro.h **** uint32_t ulOriginalBASEPRI, ulNewBASEPRI;
 210:../Dave/Generated/FREERTOS/portable/GCC/portmacro.h **** 
 211:../Dave/Generated/FREERTOS/portable/GCC/portmacro.h **** 	__asm volatile
 1357              	 .loc 2 211 0
 1358              	
 1359 000c EFF31182 	 mrs r2,basepri
 1360 0010 4FF0FC03 	 mov r3,#252
 1361 0014 83F31188 	 msr basepri,r3
 1362 0018 BFF36F8F 	 isb 
 1363 001c BFF34F8F 	 dsb 
 1364              	
 1365              	
 1366              	 .thumb
 1367 0020 3A61     	 str r2,[r7,#16]
 1368 0022 FB60     	 str r3,[r7,#12]
 212:../Dave/Generated/FREERTOS/portable/GCC/portmacro.h **** 	(
 213:../Dave/Generated/FREERTOS/portable/GCC/portmacro.h **** 		"	mrs %0, basepri											\n" \
 214:../Dave/Generated/FREERTOS/portable/GCC/portmacro.h **** 		"	mov %1, %2												\n"	\
 215:../Dave/Generated/FREERTOS/portable/GCC/portmacro.h **** 		"	msr basepri, %1											\n" \
 216:../Dave/Generated/FREERTOS/portable/GCC/portmacro.h **** 		"	isb														\n" \
 217:../Dave/Generated/FREERTOS/portable/GCC/portmacro.h **** 		"	dsb														\n" \
 218:../Dave/Generated/FREERTOS/portable/GCC/portmacro.h **** 		:"=r" (ulOriginalBASEPRI), "=r" (ulNewBASEPRI) : "i" ( configMAX_SYSCALL_INTERRUPT_PRIORITY ) : "
 219:../Dave/Generated/FREERTOS/portable/GCC/portmacro.h **** 	);
 220:../Dave/Generated/FREERTOS/portable/GCC/portmacro.h **** 
 221:../Dave/Generated/FREERTOS/portable/GCC/portmacro.h **** 	/* This return will not be reached but is necessary to prevent compiler
 222:../Dave/Generated/FREERTOS/portable/GCC/portmacro.h **** 	warnings. */
 223:../Dave/Generated/FREERTOS/portable/GCC/portmacro.h **** 	return ulOriginalBASEPRI;
 1369              	 .loc 2 223 0
 1370 0024 3B69     	 ldr r3,[r7,#16]
 1371              	.LBE128:
 1372              	.LBE127:
1448:../Dave/Generated/FREERTOS/tasks.c **** 
1449:../Dave/Generated/FREERTOS/tasks.c **** 		uxSavedInterruptState = portSET_INTERRUPT_MASK_FROM_ISR();
 1373              	 .loc 1 1449 0
 1374 0026 FB61     	 str r3,[r7,#28]
1450:../Dave/Generated/FREERTOS/tasks.c **** 		{
1451:../Dave/Generated/FREERTOS/tasks.c **** 			/* If null is passed in here then it is the priority of the calling
1452:../Dave/Generated/FREERTOS/tasks.c **** 			task that is being queried. */
1453:../Dave/Generated/FREERTOS/tasks.c **** 			pxTCB = prvGetTCBFromHandle( xTask );
 1375              	 .loc 1 1453 0
 1376 0028 7B68     	 ldr r3,[r7,#4]
 1377 002a 002B     	 cmp r3,#0
 1378 002c 02D1     	 bne .L83
 1379              	 .loc 1 1453 0 is_stmt 0 discriminator 1
 1380 002e 094B     	 ldr r3,.L86
 1381 0030 1B68     	 ldr r3,[r3]
 1382 0032 00E0     	 b .L84
 1383              	.L83:
 1384              	 .loc 1 1453 0 discriminator 2
 1385 0034 7B68     	 ldr r3,[r7,#4]
 1386              	.L84:
 1387              	 .loc 1 1453 0 discriminator 4
 1388 0036 BB61     	 str r3,[r7,#24]
1454:../Dave/Generated/FREERTOS/tasks.c **** 			uxReturn = pxTCB->uxPriority;
 1389              	 .loc 1 1454 0 is_stmt 1 discriminator 4
 1390 0038 BB69     	 ldr r3,[r7,#24]
 1391 003a DB6A     	 ldr r3,[r3,#44]
 1392 003c 7B61     	 str r3,[r7,#20]
 1393 003e FB69     	 ldr r3,[r7,#28]
 1394 0040 BB60     	 str r3,[r7,#8]
 1395              	.LBB129:
 1396              	.LBB130:
 224:../Dave/Generated/FREERTOS/portable/GCC/portmacro.h **** }
 225:../Dave/Generated/FREERTOS/portable/GCC/portmacro.h **** /*-----------------------------------------------------------*/
 226:../Dave/Generated/FREERTOS/portable/GCC/portmacro.h **** 
 227:../Dave/Generated/FREERTOS/portable/GCC/portmacro.h **** portFORCE_INLINE static void vPortSetBASEPRI( uint32_t ulNewMaskValue )
 228:../Dave/Generated/FREERTOS/portable/GCC/portmacro.h **** {
 229:../Dave/Generated/FREERTOS/portable/GCC/portmacro.h **** 	__asm volatile
 1397              	 .loc 2 229 0 discriminator 4
 1398 0042 BB68     	 ldr r3,[r7,#8]
 1399              	
 1400 0044 83F31188 	 msr basepri,r3
 1401              	
 1402              	 .thumb
 1403              	.LBE130:
 1404              	.LBE129:
1455:../Dave/Generated/FREERTOS/tasks.c **** 		}
1456:../Dave/Generated/FREERTOS/tasks.c **** 		portCLEAR_INTERRUPT_MASK_FROM_ISR( uxSavedInterruptState );
1457:../Dave/Generated/FREERTOS/tasks.c **** 
1458:../Dave/Generated/FREERTOS/tasks.c **** 		return uxReturn;
 1405              	 .loc 1 1458 0 discriminator 4
 1406 0048 7B69     	 ldr r3,[r7,#20]
1459:../Dave/Generated/FREERTOS/tasks.c **** 	}
 1407              	 .loc 1 1459 0 discriminator 4
 1408 004a 1846     	 mov r0,r3
 1409 004c 2037     	 adds r7,r7,#32
 1410              	.LCFI43:
 1411              	 .cfi_def_cfa_offset 8
 1412 004e BD46     	 mov sp,r7
 1413              	.LCFI44:
 1414              	 .cfi_def_cfa_register 13
 1415              	 
 1416 0050 80BD     	 pop {r7,pc}
 1417              	.L87:
 1418 0052 00BF     	 .align 2
 1419              	.L86:
 1420 0054 00000000 	 .word pxCurrentTCB
 1421              	 .cfi_endproc
 1422              	.LFE143:
 1424              	 .section .text.vTaskPrioritySet,"ax",%progbits
 1425              	 .align 2
 1426              	 .global vTaskPrioritySet
 1427              	 .thumb
 1428              	 .thumb_func
 1430              	vTaskPrioritySet:
 1431              	.LFB144:
1460:../Dave/Generated/FREERTOS/tasks.c **** 
1461:../Dave/Generated/FREERTOS/tasks.c **** #endif /* INCLUDE_uxTaskPriorityGet */
1462:../Dave/Generated/FREERTOS/tasks.c **** /*-----------------------------------------------------------*/
1463:../Dave/Generated/FREERTOS/tasks.c **** 
1464:../Dave/Generated/FREERTOS/tasks.c **** #if ( INCLUDE_vTaskPrioritySet == 1 )
1465:../Dave/Generated/FREERTOS/tasks.c **** 
1466:../Dave/Generated/FREERTOS/tasks.c **** 	void vTaskPrioritySet( TaskHandle_t xTask, UBaseType_t uxNewPriority )
1467:../Dave/Generated/FREERTOS/tasks.c **** 	{
 1432              	 .loc 1 1467 0
 1433              	 .cfi_startproc
 1434              	 
 1435              	 
 1436 0000 80B5     	 push {r7,lr}
 1437              	.LCFI45:
 1438              	 .cfi_def_cfa_offset 8
 1439              	 .cfi_offset 7,-8
 1440              	 .cfi_offset 14,-4
 1441 0002 88B0     	 sub sp,sp,#32
 1442              	.LCFI46:
 1443              	 .cfi_def_cfa_offset 40
 1444 0004 00AF     	 add r7,sp,#0
 1445              	.LCFI47:
 1446              	 .cfi_def_cfa_register 7
 1447 0006 7860     	 str r0,[r7,#4]
 1448 0008 3960     	 str r1,[r7]
1468:../Dave/Generated/FREERTOS/tasks.c **** 	TCB_t *pxTCB;
1469:../Dave/Generated/FREERTOS/tasks.c **** 	UBaseType_t uxCurrentBasePriority, uxPriorityUsedOnEntry;
1470:../Dave/Generated/FREERTOS/tasks.c **** 	BaseType_t xYieldRequired = pdFALSE;
 1449              	 .loc 1 1470 0
 1450 000a 0023     	 movs r3,#0
 1451 000c FB61     	 str r3,[r7,#28]
1471:../Dave/Generated/FREERTOS/tasks.c **** 
1472:../Dave/Generated/FREERTOS/tasks.c **** 		configASSERT( ( uxNewPriority < configMAX_PRIORITIES ) );
 1452              	 .loc 1 1472 0
 1453 000e 3B68     	 ldr r3,[r7]
 1454 0010 042B     	 cmp r3,#4
 1455 0012 09D9     	 bls .L89
 1456              	.LBB131:
 1457              	.LBB132:
 195:../Dave/Generated/FREERTOS/portable/GCC/portmacro.h **** 	(
 1458              	 .loc 2 195 0 discriminator 1
 1459              	
 1460 0014 4FF0FC03 	 mov r3,#252
 1461 0018 83F31188 	 msr basepri,r3
 1462 001c BFF36F8F 	 isb 
 1463 0020 BFF34F8F 	 dsb 
 1464              	
 1465              	
 1466              	 .thumb
 1467 0024 FB60     	 str r3,[r7,#12]
 1468              	.L90:
 1469              	.LBE132:
 1470              	.LBE131:
 1471              	 .loc 1 1472 0 discriminator 1
 1472 0026 FEE7     	 b .L90
 1473              	.L89:
1473:../Dave/Generated/FREERTOS/tasks.c **** 
1474:../Dave/Generated/FREERTOS/tasks.c **** 		/* Ensure the new priority is valid. */
1475:../Dave/Generated/FREERTOS/tasks.c **** 		if( uxNewPriority >= ( UBaseType_t ) configMAX_PRIORITIES )
 1474              	 .loc 1 1475 0
 1475 0028 3B68     	 ldr r3,[r7]
 1476 002a 042B     	 cmp r3,#4
 1477 002c 01D9     	 bls .L91
1476:../Dave/Generated/FREERTOS/tasks.c **** 		{
1477:../Dave/Generated/FREERTOS/tasks.c **** 			uxNewPriority = ( UBaseType_t ) configMAX_PRIORITIES - ( UBaseType_t ) 1U;
 1478              	 .loc 1 1477 0
 1479 002e 0423     	 movs r3,#4
 1480 0030 3B60     	 str r3,[r7]
 1481              	.L91:
1478:../Dave/Generated/FREERTOS/tasks.c **** 		}
1479:../Dave/Generated/FREERTOS/tasks.c **** 		else
1480:../Dave/Generated/FREERTOS/tasks.c **** 		{
1481:../Dave/Generated/FREERTOS/tasks.c **** 			mtCOVERAGE_TEST_MARKER();
1482:../Dave/Generated/FREERTOS/tasks.c **** 		}
1483:../Dave/Generated/FREERTOS/tasks.c **** 
1484:../Dave/Generated/FREERTOS/tasks.c **** 		taskENTER_CRITICAL();
 1482              	 .loc 1 1484 0
 1483 0032 FFF7FEFF 	 bl vPortEnterCritical
1485:../Dave/Generated/FREERTOS/tasks.c **** 		{
1486:../Dave/Generated/FREERTOS/tasks.c **** 			/* If null is passed in here then it is the priority of the calling
1487:../Dave/Generated/FREERTOS/tasks.c **** 			task that is being changed. */
1488:../Dave/Generated/FREERTOS/tasks.c **** 			pxTCB = prvGetTCBFromHandle( xTask );
 1484              	 .loc 1 1488 0
 1485 0036 7B68     	 ldr r3,[r7,#4]
 1486 0038 002B     	 cmp r3,#0
 1487 003a 02D1     	 bne .L92
 1488              	 .loc 1 1488 0 is_stmt 0 discriminator 1
 1489 003c 434B     	 ldr r3,.L103
 1490 003e 1B68     	 ldr r3,[r3]
 1491 0040 00E0     	 b .L93
 1492              	.L92:
 1493              	 .loc 1 1488 0 discriminator 2
 1494 0042 7B68     	 ldr r3,[r7,#4]
 1495              	.L93:
 1496              	 .loc 1 1488 0 discriminator 4
 1497 0044 BB61     	 str r3,[r7,#24]
1489:../Dave/Generated/FREERTOS/tasks.c **** 
1490:../Dave/Generated/FREERTOS/tasks.c **** 			traceTASK_PRIORITY_SET( pxTCB, uxNewPriority );
1491:../Dave/Generated/FREERTOS/tasks.c **** 
1492:../Dave/Generated/FREERTOS/tasks.c **** 			#if ( configUSE_MUTEXES == 1 )
1493:../Dave/Generated/FREERTOS/tasks.c **** 			{
1494:../Dave/Generated/FREERTOS/tasks.c **** 				uxCurrentBasePriority = pxTCB->uxBasePriority;
 1498              	 .loc 1 1494 0 is_stmt 1 discriminator 4
 1499 0046 BB69     	 ldr r3,[r7,#24]
 1500 0048 DB6C     	 ldr r3,[r3,#76]
 1501 004a 7B61     	 str r3,[r7,#20]
1495:../Dave/Generated/FREERTOS/tasks.c **** 			}
1496:../Dave/Generated/FREERTOS/tasks.c **** 			#else
1497:../Dave/Generated/FREERTOS/tasks.c **** 			{
1498:../Dave/Generated/FREERTOS/tasks.c **** 				uxCurrentBasePriority = pxTCB->uxPriority;
1499:../Dave/Generated/FREERTOS/tasks.c **** 			}
1500:../Dave/Generated/FREERTOS/tasks.c **** 			#endif
1501:../Dave/Generated/FREERTOS/tasks.c **** 
1502:../Dave/Generated/FREERTOS/tasks.c **** 			if( uxCurrentBasePriority != uxNewPriority )
 1502              	 .loc 1 1502 0 discriminator 4
 1503 004c 7A69     	 ldr r2,[r7,#20]
 1504 004e 3B68     	 ldr r3,[r7]
 1505 0050 9A42     	 cmp r2,r3
 1506 0052 76D0     	 beq .L94
1503:../Dave/Generated/FREERTOS/tasks.c **** 			{
1504:../Dave/Generated/FREERTOS/tasks.c **** 				/* The priority change may have readied a task of higher
1505:../Dave/Generated/FREERTOS/tasks.c **** 				priority than the calling task. */
1506:../Dave/Generated/FREERTOS/tasks.c **** 				if( uxNewPriority > uxCurrentBasePriority )
 1507              	 .loc 1 1506 0
 1508 0054 3A68     	 ldr r2,[r7]
 1509 0056 7B69     	 ldr r3,[r7,#20]
 1510 0058 9A42     	 cmp r2,r3
 1511 005a 0DD9     	 bls .L95
1507:../Dave/Generated/FREERTOS/tasks.c **** 				{
1508:../Dave/Generated/FREERTOS/tasks.c **** 					if( pxTCB != pxCurrentTCB )
 1512              	 .loc 1 1508 0
 1513 005c 3B4B     	 ldr r3,.L103
 1514 005e 1B68     	 ldr r3,[r3]
 1515 0060 BA69     	 ldr r2,[r7,#24]
 1516 0062 9A42     	 cmp r2,r3
 1517 0064 0FD0     	 beq .L96
1509:../Dave/Generated/FREERTOS/tasks.c **** 					{
1510:../Dave/Generated/FREERTOS/tasks.c **** 						/* The priority of a task other than the currently
1511:../Dave/Generated/FREERTOS/tasks.c **** 						running task is being raised.  Is the priority being
1512:../Dave/Generated/FREERTOS/tasks.c **** 						raised above that of the running task? */
1513:../Dave/Generated/FREERTOS/tasks.c **** 						if( uxNewPriority >= pxCurrentTCB->uxPriority )
 1518              	 .loc 1 1513 0
 1519 0066 394B     	 ldr r3,.L103
 1520 0068 1B68     	 ldr r3,[r3]
 1521 006a DA6A     	 ldr r2,[r3,#44]
 1522 006c 3B68     	 ldr r3,[r7]
 1523 006e 9A42     	 cmp r2,r3
 1524 0070 09D8     	 bhi .L96
1514:../Dave/Generated/FREERTOS/tasks.c **** 						{
1515:../Dave/Generated/FREERTOS/tasks.c **** 							xYieldRequired = pdTRUE;
 1525              	 .loc 1 1515 0
 1526 0072 0123     	 movs r3,#1
 1527 0074 FB61     	 str r3,[r7,#28]
 1528 0076 06E0     	 b .L96
 1529              	.L95:
1516:../Dave/Generated/FREERTOS/tasks.c **** 						}
1517:../Dave/Generated/FREERTOS/tasks.c **** 						else
1518:../Dave/Generated/FREERTOS/tasks.c **** 						{
1519:../Dave/Generated/FREERTOS/tasks.c **** 							mtCOVERAGE_TEST_MARKER();
1520:../Dave/Generated/FREERTOS/tasks.c **** 						}
1521:../Dave/Generated/FREERTOS/tasks.c **** 					}
1522:../Dave/Generated/FREERTOS/tasks.c **** 					else
1523:../Dave/Generated/FREERTOS/tasks.c **** 					{
1524:../Dave/Generated/FREERTOS/tasks.c **** 						/* The priority of the running task is being raised,
1525:../Dave/Generated/FREERTOS/tasks.c **** 						but the running task must already be the highest
1526:../Dave/Generated/FREERTOS/tasks.c **** 						priority task able to run so no yield is required. */
1527:../Dave/Generated/FREERTOS/tasks.c **** 					}
1528:../Dave/Generated/FREERTOS/tasks.c **** 				}
1529:../Dave/Generated/FREERTOS/tasks.c **** 				else if( pxTCB == pxCurrentTCB )
 1530              	 .loc 1 1529 0
 1531 0078 344B     	 ldr r3,.L103
 1532 007a 1B68     	 ldr r3,[r3]
 1533 007c BA69     	 ldr r2,[r7,#24]
 1534 007e 9A42     	 cmp r2,r3
 1535 0080 01D1     	 bne .L96
1530:../Dave/Generated/FREERTOS/tasks.c **** 				{
1531:../Dave/Generated/FREERTOS/tasks.c **** 					/* Setting the priority of the running task down means
1532:../Dave/Generated/FREERTOS/tasks.c **** 					there may now be another task of higher priority that
1533:../Dave/Generated/FREERTOS/tasks.c **** 					is ready to execute. */
1534:../Dave/Generated/FREERTOS/tasks.c **** 					xYieldRequired = pdTRUE;
 1536              	 .loc 1 1534 0
 1537 0082 0123     	 movs r3,#1
 1538 0084 FB61     	 str r3,[r7,#28]
 1539              	.L96:
1535:../Dave/Generated/FREERTOS/tasks.c **** 				}
1536:../Dave/Generated/FREERTOS/tasks.c **** 				else
1537:../Dave/Generated/FREERTOS/tasks.c **** 				{
1538:../Dave/Generated/FREERTOS/tasks.c **** 					/* Setting the priority of any other task down does not
1539:../Dave/Generated/FREERTOS/tasks.c **** 					require a yield as the running task must be above the
1540:../Dave/Generated/FREERTOS/tasks.c **** 					new priority of the task being modified. */
1541:../Dave/Generated/FREERTOS/tasks.c **** 				}
1542:../Dave/Generated/FREERTOS/tasks.c **** 
1543:../Dave/Generated/FREERTOS/tasks.c **** 				/* Remember the ready list the task might be referenced from
1544:../Dave/Generated/FREERTOS/tasks.c **** 				before its uxPriority member is changed so the
1545:../Dave/Generated/FREERTOS/tasks.c **** 				taskRESET_READY_PRIORITY() macro can function correctly. */
1546:../Dave/Generated/FREERTOS/tasks.c **** 				uxPriorityUsedOnEntry = pxTCB->uxPriority;
 1540              	 .loc 1 1546 0
 1541 0086 BB69     	 ldr r3,[r7,#24]
 1542 0088 DB6A     	 ldr r3,[r3,#44]
 1543 008a 3B61     	 str r3,[r7,#16]
1547:../Dave/Generated/FREERTOS/tasks.c **** 
1548:../Dave/Generated/FREERTOS/tasks.c **** 				#if ( configUSE_MUTEXES == 1 )
1549:../Dave/Generated/FREERTOS/tasks.c **** 				{
1550:../Dave/Generated/FREERTOS/tasks.c **** 					/* Only change the priority being used if the task is not
1551:../Dave/Generated/FREERTOS/tasks.c **** 					currently using an inherited priority. */
1552:../Dave/Generated/FREERTOS/tasks.c **** 					if( pxTCB->uxBasePriority == pxTCB->uxPriority )
 1544              	 .loc 1 1552 0
 1545 008c BB69     	 ldr r3,[r7,#24]
 1546 008e DA6C     	 ldr r2,[r3,#76]
 1547 0090 BB69     	 ldr r3,[r7,#24]
 1548 0092 DB6A     	 ldr r3,[r3,#44]
 1549 0094 9A42     	 cmp r2,r3
 1550 0096 02D1     	 bne .L97
1553:../Dave/Generated/FREERTOS/tasks.c **** 					{
1554:../Dave/Generated/FREERTOS/tasks.c **** 						pxTCB->uxPriority = uxNewPriority;
 1551              	 .loc 1 1554 0
 1552 0098 BB69     	 ldr r3,[r7,#24]
 1553 009a 3A68     	 ldr r2,[r7]
 1554 009c DA62     	 str r2,[r3,#44]
 1555              	.L97:
1555:../Dave/Generated/FREERTOS/tasks.c **** 					}
1556:../Dave/Generated/FREERTOS/tasks.c **** 					else
1557:../Dave/Generated/FREERTOS/tasks.c **** 					{
1558:../Dave/Generated/FREERTOS/tasks.c **** 						mtCOVERAGE_TEST_MARKER();
1559:../Dave/Generated/FREERTOS/tasks.c **** 					}
1560:../Dave/Generated/FREERTOS/tasks.c **** 
1561:../Dave/Generated/FREERTOS/tasks.c **** 					/* The base priority gets set whatever. */
1562:../Dave/Generated/FREERTOS/tasks.c **** 					pxTCB->uxBasePriority = uxNewPriority;
 1556              	 .loc 1 1562 0
 1557 009e BB69     	 ldr r3,[r7,#24]
 1558 00a0 3A68     	 ldr r2,[r7]
 1559 00a2 DA64     	 str r2,[r3,#76]
1563:../Dave/Generated/FREERTOS/tasks.c **** 				}
1564:../Dave/Generated/FREERTOS/tasks.c **** 				#else
1565:../Dave/Generated/FREERTOS/tasks.c **** 				{
1566:../Dave/Generated/FREERTOS/tasks.c **** 					pxTCB->uxPriority = uxNewPriority;
1567:../Dave/Generated/FREERTOS/tasks.c **** 				}
1568:../Dave/Generated/FREERTOS/tasks.c **** 				#endif
1569:../Dave/Generated/FREERTOS/tasks.c **** 
1570:../Dave/Generated/FREERTOS/tasks.c **** 				/* Only reset the event list item value if the value is not
1571:../Dave/Generated/FREERTOS/tasks.c **** 				being used for anything else. */
1572:../Dave/Generated/FREERTOS/tasks.c **** 				if( ( listGET_LIST_ITEM_VALUE( &( pxTCB->xEventListItem ) ) & taskEVENT_LIST_ITEM_VALUE_IN_USE 
 1560              	 .loc 1 1572 0
 1561 00a4 BB69     	 ldr r3,[r7,#24]
 1562 00a6 9B69     	 ldr r3,[r3,#24]
 1563 00a8 002B     	 cmp r3,#0
 1564 00aa 04DB     	 blt .L98
1573:../Dave/Generated/FREERTOS/tasks.c **** 				{
1574:../Dave/Generated/FREERTOS/tasks.c **** 					listSET_LIST_ITEM_VALUE( &( pxTCB->xEventListItem ), ( ( TickType_t ) configMAX_PRIORITIES - (
 1565              	 .loc 1 1574 0
 1566 00ac 3B68     	 ldr r3,[r7]
 1567 00ae C3F10502 	 rsb r2,r3,#5
 1568 00b2 BB69     	 ldr r3,[r7,#24]
 1569 00b4 9A61     	 str r2,[r3,#24]
 1570              	.L98:
1575:../Dave/Generated/FREERTOS/tasks.c **** 				}
1576:../Dave/Generated/FREERTOS/tasks.c **** 				else
1577:../Dave/Generated/FREERTOS/tasks.c **** 				{
1578:../Dave/Generated/FREERTOS/tasks.c **** 					mtCOVERAGE_TEST_MARKER();
1579:../Dave/Generated/FREERTOS/tasks.c **** 				}
1580:../Dave/Generated/FREERTOS/tasks.c **** 
1581:../Dave/Generated/FREERTOS/tasks.c **** 				/* If the task is in the blocked or suspended list we need do
1582:../Dave/Generated/FREERTOS/tasks.c **** 				nothing more than change its priority variable. However, if
1583:../Dave/Generated/FREERTOS/tasks.c **** 				the task is in a ready list it needs to be removed and placed
1584:../Dave/Generated/FREERTOS/tasks.c **** 				in the list appropriate to its new priority. */
1585:../Dave/Generated/FREERTOS/tasks.c **** 				if( listIS_CONTAINED_WITHIN( &( pxReadyTasksLists[ uxPriorityUsedOnEntry ] ), &( pxTCB->xStateL
 1571              	 .loc 1 1585 0
 1572 00b6 BB69     	 ldr r3,[r7,#24]
 1573 00b8 5969     	 ldr r1,[r3,#20]
 1574 00ba 3A69     	 ldr r2,[r7,#16]
 1575 00bc 1346     	 mov r3,r2
 1576 00be 9B00     	 lsls r3,r3,#2
 1577 00c0 1344     	 add r3,r3,r2
 1578 00c2 9B00     	 lsls r3,r3,#2
 1579 00c4 224A     	 ldr r2,.L103+4
 1580 00c6 1344     	 add r3,r3,r2
 1581 00c8 9942     	 cmp r1,r3
 1582 00ca 01D1     	 bne .L99
 1583              	 .loc 1 1585 0 is_stmt 0 discriminator 1
 1584 00cc 0123     	 movs r3,#1
 1585 00ce 00E0     	 b .L100
 1586              	.L99:
 1587              	 .loc 1 1585 0 discriminator 2
 1588 00d0 0023     	 movs r3,#0
 1589              	.L100:
 1590              	 .loc 1 1585 0 discriminator 4
 1591 00d2 002B     	 cmp r3,#0
 1592 00d4 2AD0     	 beq .L101
1586:../Dave/Generated/FREERTOS/tasks.c **** 				{
1587:../Dave/Generated/FREERTOS/tasks.c **** 					/* The task is currently in its ready list - remove before
1588:../Dave/Generated/FREERTOS/tasks.c **** 					adding it to it's new ready list.  As we are in a critical
1589:../Dave/Generated/FREERTOS/tasks.c **** 					section we can do this even if the scheduler is suspended. */
1590:../Dave/Generated/FREERTOS/tasks.c **** 					if( uxListRemove( &( pxTCB->xStateListItem ) ) == ( UBaseType_t ) 0 )
 1593              	 .loc 1 1590 0 is_stmt 1
 1594 00d6 BB69     	 ldr r3,[r7,#24]
 1595 00d8 0433     	 adds r3,r3,#4
 1596 00da 1846     	 mov r0,r3
 1597 00dc FFF7FEFF 	 bl uxListRemove
 1598 00e0 0346     	 mov r3,r0
 1599 00e2 002B     	 cmp r3,#0
 1600 00e4 09D1     	 bne .L102
1591:../Dave/Generated/FREERTOS/tasks.c **** 					{
1592:../Dave/Generated/FREERTOS/tasks.c **** 						/* It is known that the task is in its ready list so
1593:../Dave/Generated/FREERTOS/tasks.c **** 						there is no need to check again and the port level
1594:../Dave/Generated/FREERTOS/tasks.c **** 						reset macro can be called directly. */
1595:../Dave/Generated/FREERTOS/tasks.c **** 						portRESET_READY_PRIORITY( uxPriorityUsedOnEntry, uxTopReadyPriority );
 1601              	 .loc 1 1595 0
 1602 00e6 3B69     	 ldr r3,[r7,#16]
 1603 00e8 0122     	 movs r2,#1
 1604 00ea 02FA03F3 	 lsl r3,r2,r3
 1605 00ee DA43     	 mvns r2,r3
 1606 00f0 184B     	 ldr r3,.L103+8
 1607 00f2 1B68     	 ldr r3,[r3]
 1608 00f4 1340     	 ands r3,r3,r2
 1609 00f6 174A     	 ldr r2,.L103+8
 1610 00f8 1360     	 str r3,[r2]
 1611              	.L102:
1596:../Dave/Generated/FREERTOS/tasks.c **** 					}
1597:../Dave/Generated/FREERTOS/tasks.c **** 					else
1598:../Dave/Generated/FREERTOS/tasks.c **** 					{
1599:../Dave/Generated/FREERTOS/tasks.c **** 						mtCOVERAGE_TEST_MARKER();
1600:../Dave/Generated/FREERTOS/tasks.c **** 					}
1601:../Dave/Generated/FREERTOS/tasks.c **** 					prvAddTaskToReadyList( pxTCB );
 1612              	 .loc 1 1601 0
 1613 00fa BB69     	 ldr r3,[r7,#24]
 1614 00fc DB6A     	 ldr r3,[r3,#44]
 1615 00fe 1A46     	 mov r2,r3
 1616 0100 0123     	 movs r3,#1
 1617 0102 03FA02F2 	 lsl r2,r3,r2
 1618 0106 134B     	 ldr r3,.L103+8
 1619 0108 1B68     	 ldr r3,[r3]
 1620 010a 1343     	 orrs r3,r3,r2
 1621 010c 114A     	 ldr r2,.L103+8
 1622 010e 1360     	 str r3,[r2]
 1623 0110 BB69     	 ldr r3,[r7,#24]
 1624 0112 DA6A     	 ldr r2,[r3,#44]
 1625 0114 1346     	 mov r3,r2
 1626 0116 9B00     	 lsls r3,r3,#2
 1627 0118 1344     	 add r3,r3,r2
 1628 011a 9B00     	 lsls r3,r3,#2
 1629 011c 0C4A     	 ldr r2,.L103+4
 1630 011e 1A44     	 add r2,r2,r3
 1631 0120 BB69     	 ldr r3,[r7,#24]
 1632 0122 0433     	 adds r3,r3,#4
 1633 0124 1046     	 mov r0,r2
 1634 0126 1946     	 mov r1,r3
 1635 0128 FFF7FEFF 	 bl vListInsertEnd
 1636              	.L101:
1602:../Dave/Generated/FREERTOS/tasks.c **** 				}
1603:../Dave/Generated/FREERTOS/tasks.c **** 				else
1604:../Dave/Generated/FREERTOS/tasks.c **** 				{
1605:../Dave/Generated/FREERTOS/tasks.c **** 					mtCOVERAGE_TEST_MARKER();
1606:../Dave/Generated/FREERTOS/tasks.c **** 				}
1607:../Dave/Generated/FREERTOS/tasks.c **** 
1608:../Dave/Generated/FREERTOS/tasks.c **** 				if( xYieldRequired != pdFALSE )
 1637              	 .loc 1 1608 0
 1638 012c FB69     	 ldr r3,[r7,#28]
 1639 012e 002B     	 cmp r3,#0
 1640 0130 07D0     	 beq .L94
1609:../Dave/Generated/FREERTOS/tasks.c **** 				{
1610:../Dave/Generated/FREERTOS/tasks.c **** 					taskYIELD_IF_USING_PREEMPTION();
 1641              	 .loc 1 1610 0
 1642 0132 094B     	 ldr r3,.L103+12
 1643 0134 4FF08052 	 mov r2,#268435456
 1644 0138 1A60     	 str r2,[r3]
 1645              	
 1646 013a BFF34F8F 	 dsb
 1647              	
 1648              	
 1649 013e BFF36F8F 	 isb
 1650              	
 1651              	 .thumb
 1652              	.L94:
1611:../Dave/Generated/FREERTOS/tasks.c **** 				}
1612:../Dave/Generated/FREERTOS/tasks.c **** 				else
1613:../Dave/Generated/FREERTOS/tasks.c **** 				{
1614:../Dave/Generated/FREERTOS/tasks.c **** 					mtCOVERAGE_TEST_MARKER();
1615:../Dave/Generated/FREERTOS/tasks.c **** 				}
1616:../Dave/Generated/FREERTOS/tasks.c **** 
1617:../Dave/Generated/FREERTOS/tasks.c **** 				/* Remove compiler warning about unused variables when the port
1618:../Dave/Generated/FREERTOS/tasks.c **** 				optimised task selection is not being used. */
1619:../Dave/Generated/FREERTOS/tasks.c **** 				( void ) uxPriorityUsedOnEntry;
1620:../Dave/Generated/FREERTOS/tasks.c **** 			}
1621:../Dave/Generated/FREERTOS/tasks.c **** 		}
1622:../Dave/Generated/FREERTOS/tasks.c **** 		taskEXIT_CRITICAL();
 1653              	 .loc 1 1622 0
 1654 0142 FFF7FEFF 	 bl vPortExitCritical
1623:../Dave/Generated/FREERTOS/tasks.c **** 	}
 1655              	 .loc 1 1623 0
 1656 0146 2037     	 adds r7,r7,#32
 1657              	.LCFI48:
 1658              	 .cfi_def_cfa_offset 8
 1659 0148 BD46     	 mov sp,r7
 1660              	.LCFI49:
 1661              	 .cfi_def_cfa_register 13
 1662              	 
 1663 014a 80BD     	 pop {r7,pc}
 1664              	.L104:
 1665              	 .align 2
 1666              	.L103:
 1667 014c 00000000 	 .word pxCurrentTCB
 1668 0150 00000000 	 .word pxReadyTasksLists
 1669 0154 00000000 	 .word uxTopReadyPriority
 1670 0158 04ED00E0 	 .word -536810236
 1671              	 .cfi_endproc
 1672              	.LFE144:
 1674              	 .section .text.vTaskSuspend,"ax",%progbits
 1675              	 .align 2
 1676              	 .global vTaskSuspend
 1677              	 .thumb
 1678              	 .thumb_func
 1680              	vTaskSuspend:
 1681              	.LFB145:
1624:../Dave/Generated/FREERTOS/tasks.c **** 
1625:../Dave/Generated/FREERTOS/tasks.c **** #endif /* INCLUDE_vTaskPrioritySet */
1626:../Dave/Generated/FREERTOS/tasks.c **** /*-----------------------------------------------------------*/
1627:../Dave/Generated/FREERTOS/tasks.c **** 
1628:../Dave/Generated/FREERTOS/tasks.c **** #if ( INCLUDE_vTaskSuspend == 1 )
1629:../Dave/Generated/FREERTOS/tasks.c **** 
1630:../Dave/Generated/FREERTOS/tasks.c **** 	void vTaskSuspend( TaskHandle_t xTaskToSuspend )
1631:../Dave/Generated/FREERTOS/tasks.c **** 	{
 1682              	 .loc 1 1631 0
 1683              	 .cfi_startproc
 1684              	 
 1685              	 
 1686 0000 80B5     	 push {r7,lr}
 1687              	.LCFI50:
 1688              	 .cfi_def_cfa_offset 8
 1689              	 .cfi_offset 7,-8
 1690              	 .cfi_offset 14,-4
 1691 0002 84B0     	 sub sp,sp,#16
 1692              	.LCFI51:
 1693              	 .cfi_def_cfa_offset 24
 1694 0004 00AF     	 add r7,sp,#0
 1695              	.LCFI52:
 1696              	 .cfi_def_cfa_register 7
 1697 0006 7860     	 str r0,[r7,#4]
1632:../Dave/Generated/FREERTOS/tasks.c **** 	TCB_t *pxTCB;
1633:../Dave/Generated/FREERTOS/tasks.c **** 
1634:../Dave/Generated/FREERTOS/tasks.c **** 		taskENTER_CRITICAL();
 1698              	 .loc 1 1634 0
 1699 0008 FFF7FEFF 	 bl vPortEnterCritical
1635:../Dave/Generated/FREERTOS/tasks.c **** 		{
1636:../Dave/Generated/FREERTOS/tasks.c **** 			/* If null is passed in here then it is the running task that is
1637:../Dave/Generated/FREERTOS/tasks.c **** 			being suspended. */
1638:../Dave/Generated/FREERTOS/tasks.c **** 			pxTCB = prvGetTCBFromHandle( xTaskToSuspend );
 1700              	 .loc 1 1638 0
 1701 000c 7B68     	 ldr r3,[r7,#4]
 1702 000e 002B     	 cmp r3,#0
 1703 0010 02D1     	 bne .L106
 1704              	 .loc 1 1638 0 is_stmt 0 discriminator 1
 1705 0012 3B4B     	 ldr r3,.L119
 1706 0014 1B68     	 ldr r3,[r3]
 1707 0016 00E0     	 b .L107
 1708              	.L106:
 1709              	 .loc 1 1638 0 discriminator 2
 1710 0018 7B68     	 ldr r3,[r7,#4]
 1711              	.L107:
 1712              	 .loc 1 1638 0 discriminator 4
 1713 001a FB60     	 str r3,[r7,#12]
1639:../Dave/Generated/FREERTOS/tasks.c **** 
1640:../Dave/Generated/FREERTOS/tasks.c **** 			traceTASK_SUSPEND( pxTCB );
1641:../Dave/Generated/FREERTOS/tasks.c **** 
1642:../Dave/Generated/FREERTOS/tasks.c **** 			/* Remove task from the ready/delayed list and place in the
1643:../Dave/Generated/FREERTOS/tasks.c **** 			suspended list. */
1644:../Dave/Generated/FREERTOS/tasks.c **** 			if( uxListRemove( &( pxTCB->xStateListItem ) ) == ( UBaseType_t ) 0 )
 1714              	 .loc 1 1644 0 is_stmt 1 discriminator 4
 1715 001c FB68     	 ldr r3,[r7,#12]
 1716 001e 0433     	 adds r3,r3,#4
 1717 0020 1846     	 mov r0,r3
 1718 0022 FFF7FEFF 	 bl uxListRemove
 1719 0026 0346     	 mov r3,r0
 1720 0028 002B     	 cmp r3,#0
 1721 002a 15D1     	 bne .L108
1645:../Dave/Generated/FREERTOS/tasks.c **** 			{
1646:../Dave/Generated/FREERTOS/tasks.c **** 				taskRESET_READY_PRIORITY( pxTCB->uxPriority );
 1722              	 .loc 1 1646 0
 1723 002c FB68     	 ldr r3,[r7,#12]
 1724 002e DA6A     	 ldr r2,[r3,#44]
 1725 0030 3449     	 ldr r1,.L119+4
 1726 0032 1346     	 mov r3,r2
 1727 0034 9B00     	 lsls r3,r3,#2
 1728 0036 1344     	 add r3,r3,r2
 1729 0038 9B00     	 lsls r3,r3,#2
 1730 003a 0B44     	 add r3,r3,r1
 1731 003c 1B68     	 ldr r3,[r3]
 1732 003e 002B     	 cmp r3,#0
 1733 0040 0AD1     	 bne .L108
 1734              	 .loc 1 1646 0 is_stmt 0 discriminator 1
 1735 0042 FB68     	 ldr r3,[r7,#12]
 1736 0044 DB6A     	 ldr r3,[r3,#44]
 1737 0046 1A46     	 mov r2,r3
 1738 0048 0123     	 movs r3,#1
 1739 004a 9340     	 lsls r3,r3,r2
 1740 004c DA43     	 mvns r2,r3
 1741 004e 2E4B     	 ldr r3,.L119+8
 1742 0050 1B68     	 ldr r3,[r3]
 1743 0052 1340     	 ands r3,r3,r2
 1744 0054 2C4A     	 ldr r2,.L119+8
 1745 0056 1360     	 str r3,[r2]
 1746              	.L108:
1647:../Dave/Generated/FREERTOS/tasks.c **** 			}
1648:../Dave/Generated/FREERTOS/tasks.c **** 			else
1649:../Dave/Generated/FREERTOS/tasks.c **** 			{
1650:../Dave/Generated/FREERTOS/tasks.c **** 				mtCOVERAGE_TEST_MARKER();
1651:../Dave/Generated/FREERTOS/tasks.c **** 			}
1652:../Dave/Generated/FREERTOS/tasks.c **** 
1653:../Dave/Generated/FREERTOS/tasks.c **** 			/* Is the task waiting on an event also? */
1654:../Dave/Generated/FREERTOS/tasks.c **** 			if( listLIST_ITEM_CONTAINER( &( pxTCB->xEventListItem ) ) != NULL )
 1747              	 .loc 1 1654 0 is_stmt 1
 1748 0058 FB68     	 ldr r3,[r7,#12]
 1749 005a 9B6A     	 ldr r3,[r3,#40]
 1750 005c 002B     	 cmp r3,#0
 1751 005e 04D0     	 beq .L110
1655:../Dave/Generated/FREERTOS/tasks.c **** 			{
1656:../Dave/Generated/FREERTOS/tasks.c **** 				( void ) uxListRemove( &( pxTCB->xEventListItem ) );
 1752              	 .loc 1 1656 0
 1753 0060 FB68     	 ldr r3,[r7,#12]
 1754 0062 1833     	 adds r3,r3,#24
 1755 0064 1846     	 mov r0,r3
 1756 0066 FFF7FEFF 	 bl uxListRemove
 1757              	.L110:
1657:../Dave/Generated/FREERTOS/tasks.c **** 			}
1658:../Dave/Generated/FREERTOS/tasks.c **** 			else
1659:../Dave/Generated/FREERTOS/tasks.c **** 			{
1660:../Dave/Generated/FREERTOS/tasks.c **** 				mtCOVERAGE_TEST_MARKER();
1661:../Dave/Generated/FREERTOS/tasks.c **** 			}
1662:../Dave/Generated/FREERTOS/tasks.c **** 
1663:../Dave/Generated/FREERTOS/tasks.c **** 			vListInsertEnd( &xSuspendedTaskList, &( pxTCB->xStateListItem ) );
 1758              	 .loc 1 1663 0
 1759 006a FB68     	 ldr r3,[r7,#12]
 1760 006c 0433     	 adds r3,r3,#4
 1761 006e 2748     	 ldr r0,.L119+12
 1762 0070 1946     	 mov r1,r3
 1763 0072 FFF7FEFF 	 bl vListInsertEnd
1664:../Dave/Generated/FREERTOS/tasks.c **** 
1665:../Dave/Generated/FREERTOS/tasks.c **** 			#if( configUSE_TASK_NOTIFICATIONS == 1 )
1666:../Dave/Generated/FREERTOS/tasks.c **** 			{
1667:../Dave/Generated/FREERTOS/tasks.c **** 				if( pxTCB->ucNotifyState == taskWAITING_NOTIFICATION )
 1764              	 .loc 1 1667 0
 1765 0076 FB68     	 ldr r3,[r7,#12]
 1766 0078 93F86C30 	 ldrb r3,[r3,#108]
 1767 007c DBB2     	 uxtb r3,r3
 1768 007e 012B     	 cmp r3,#1
 1769 0080 03D1     	 bne .L111
1668:../Dave/Generated/FREERTOS/tasks.c **** 				{
1669:../Dave/Generated/FREERTOS/tasks.c **** 					/* The task was blocked to wait for a notification, but is
1670:../Dave/Generated/FREERTOS/tasks.c **** 					now suspended, so no notification was received. */
1671:../Dave/Generated/FREERTOS/tasks.c **** 					pxTCB->ucNotifyState = taskNOT_WAITING_NOTIFICATION;
 1770              	 .loc 1 1671 0
 1771 0082 FB68     	 ldr r3,[r7,#12]
 1772 0084 0022     	 movs r2,#0
 1773 0086 83F86C20 	 strb r2,[r3,#108]
 1774              	.L111:
1672:../Dave/Generated/FREERTOS/tasks.c **** 				}
1673:../Dave/Generated/FREERTOS/tasks.c **** 			}
1674:../Dave/Generated/FREERTOS/tasks.c **** 			#endif
1675:../Dave/Generated/FREERTOS/tasks.c **** 		}
1676:../Dave/Generated/FREERTOS/tasks.c **** 		taskEXIT_CRITICAL();
 1775              	 .loc 1 1676 0
 1776 008a FFF7FEFF 	 bl vPortExitCritical
1677:../Dave/Generated/FREERTOS/tasks.c **** 
1678:../Dave/Generated/FREERTOS/tasks.c **** 		if( xSchedulerRunning != pdFALSE )
 1777              	 .loc 1 1678 0
 1778 008e 204B     	 ldr r3,.L119+16
 1779 0090 1B68     	 ldr r3,[r3]
 1780 0092 002B     	 cmp r3,#0
 1781 0094 05D0     	 beq .L112
1679:../Dave/Generated/FREERTOS/tasks.c **** 		{
1680:../Dave/Generated/FREERTOS/tasks.c **** 			/* Reset the next expected unblock time in case it referred to the
1681:../Dave/Generated/FREERTOS/tasks.c **** 			task that is now in the Suspended state. */
1682:../Dave/Generated/FREERTOS/tasks.c **** 			taskENTER_CRITICAL();
 1782              	 .loc 1 1682 0
 1783 0096 FFF7FEFF 	 bl vPortEnterCritical
1683:../Dave/Generated/FREERTOS/tasks.c **** 			{
1684:../Dave/Generated/FREERTOS/tasks.c **** 				prvResetNextTaskUnblockTime();
 1784              	 .loc 1 1684 0
 1785 009a FFF7FEFF 	 bl prvResetNextTaskUnblockTime
1685:../Dave/Generated/FREERTOS/tasks.c **** 			}
1686:../Dave/Generated/FREERTOS/tasks.c **** 			taskEXIT_CRITICAL();
 1786              	 .loc 1 1686 0
 1787 009e FFF7FEFF 	 bl vPortExitCritical
 1788              	.L112:
1687:../Dave/Generated/FREERTOS/tasks.c **** 		}
1688:../Dave/Generated/FREERTOS/tasks.c **** 		else
1689:../Dave/Generated/FREERTOS/tasks.c **** 		{
1690:../Dave/Generated/FREERTOS/tasks.c **** 			mtCOVERAGE_TEST_MARKER();
1691:../Dave/Generated/FREERTOS/tasks.c **** 		}
1692:../Dave/Generated/FREERTOS/tasks.c **** 
1693:../Dave/Generated/FREERTOS/tasks.c **** 		if( pxTCB == pxCurrentTCB )
 1789              	 .loc 1 1693 0
 1790 00a2 174B     	 ldr r3,.L119
 1791 00a4 1B68     	 ldr r3,[r3]
 1792 00a6 FA68     	 ldr r2,[r7,#12]
 1793 00a8 9A42     	 cmp r2,r3
 1794 00aa 26D1     	 bne .L105
1694:../Dave/Generated/FREERTOS/tasks.c **** 		{
1695:../Dave/Generated/FREERTOS/tasks.c **** 			if( xSchedulerRunning != pdFALSE )
 1795              	 .loc 1 1695 0
 1796 00ac 184B     	 ldr r3,.L119+16
 1797 00ae 1B68     	 ldr r3,[r3]
 1798 00b0 002B     	 cmp r3,#0
 1799 00b2 16D0     	 beq .L114
1696:../Dave/Generated/FREERTOS/tasks.c **** 			{
1697:../Dave/Generated/FREERTOS/tasks.c **** 				/* The current task has just been suspended. */
1698:../Dave/Generated/FREERTOS/tasks.c **** 				configASSERT( uxSchedulerSuspended == 0 );
 1800              	 .loc 1 1698 0
 1801 00b4 174B     	 ldr r3,.L119+20
 1802 00b6 1B68     	 ldr r3,[r3]
 1803 00b8 002B     	 cmp r3,#0
 1804 00ba 09D0     	 beq .L115
 1805              	.LBB133:
 1806              	.LBB134:
 195:../Dave/Generated/FREERTOS/portable/GCC/portmacro.h **** 	(
 1807              	 .loc 2 195 0 discriminator 1
 1808              	
 1809 00bc 4FF0FC03 	 mov r3,#252
 1810 00c0 83F31188 	 msr basepri,r3
 1811 00c4 BFF36F8F 	 isb 
 1812 00c8 BFF34F8F 	 dsb 
 1813              	
 1814              	
 1815              	 .thumb
 1816 00cc BB60     	 str r3,[r7,#8]
 1817              	.L116:
 1818              	.LBE134:
 1819              	.LBE133:
 1820              	 .loc 1 1698 0 discriminator 1
 1821 00ce FEE7     	 b .L116
 1822              	.L115:
1699:../Dave/Generated/FREERTOS/tasks.c **** 				portYIELD_WITHIN_API();
 1823              	 .loc 1 1699 0
 1824 00d0 114B     	 ldr r3,.L119+24
 1825 00d2 4FF08052 	 mov r2,#268435456
 1826 00d6 1A60     	 str r2,[r3]
 1827              	
 1828 00d8 BFF34F8F 	 dsb
 1829              	
 1830              	
 1831 00dc BFF36F8F 	 isb
 1832              	
 1833              	 .thumb
 1834 00e0 0BE0     	 b .L105
 1835              	.L114:
1700:../Dave/Generated/FREERTOS/tasks.c **** 			}
1701:../Dave/Generated/FREERTOS/tasks.c **** 			else
1702:../Dave/Generated/FREERTOS/tasks.c **** 			{
1703:../Dave/Generated/FREERTOS/tasks.c **** 				/* The scheduler is not running, but the task that was pointed
1704:../Dave/Generated/FREERTOS/tasks.c **** 				to by pxCurrentTCB has just been suspended and pxCurrentTCB
1705:../Dave/Generated/FREERTOS/tasks.c **** 				must be adjusted to point to a different task. */
1706:../Dave/Generated/FREERTOS/tasks.c **** 				if( listCURRENT_LIST_LENGTH( &xSuspendedTaskList ) == uxCurrentNumberOfTasks )
 1836              	 .loc 1 1706 0
 1837 00e2 0A4B     	 ldr r3,.L119+12
 1838 00e4 1A68     	 ldr r2,[r3]
 1839 00e6 0D4B     	 ldr r3,.L119+28
 1840 00e8 1B68     	 ldr r3,[r3]
 1841 00ea 9A42     	 cmp r2,r3
 1842 00ec 03D1     	 bne .L118
1707:../Dave/Generated/FREERTOS/tasks.c **** 				{
1708:../Dave/Generated/FREERTOS/tasks.c **** 					/* No other tasks are ready, so set pxCurrentTCB back to
1709:../Dave/Generated/FREERTOS/tasks.c **** 					NULL so when the next task is created pxCurrentTCB will
1710:../Dave/Generated/FREERTOS/tasks.c **** 					be set to point to it no matter what its relative priority
1711:../Dave/Generated/FREERTOS/tasks.c **** 					is. */
1712:../Dave/Generated/FREERTOS/tasks.c **** 					pxCurrentTCB = NULL;
 1843              	 .loc 1 1712 0
 1844 00ee 044B     	 ldr r3,.L119
 1845 00f0 0022     	 movs r2,#0
 1846 00f2 1A60     	 str r2,[r3]
 1847 00f4 01E0     	 b .L105
 1848              	.L118:
1713:../Dave/Generated/FREERTOS/tasks.c **** 				}
1714:../Dave/Generated/FREERTOS/tasks.c **** 				else
1715:../Dave/Generated/FREERTOS/tasks.c **** 				{
1716:../Dave/Generated/FREERTOS/tasks.c **** 					vTaskSwitchContext();
 1849              	 .loc 1 1716 0
 1850 00f6 FFF7FEFF 	 bl vTaskSwitchContext
 1851              	.L105:
1717:../Dave/Generated/FREERTOS/tasks.c **** 				}
1718:../Dave/Generated/FREERTOS/tasks.c **** 			}
1719:../Dave/Generated/FREERTOS/tasks.c **** 		}
1720:../Dave/Generated/FREERTOS/tasks.c **** 		else
1721:../Dave/Generated/FREERTOS/tasks.c **** 		{
1722:../Dave/Generated/FREERTOS/tasks.c **** 			mtCOVERAGE_TEST_MARKER();
1723:../Dave/Generated/FREERTOS/tasks.c **** 		}
1724:../Dave/Generated/FREERTOS/tasks.c **** 	}
 1852              	 .loc 1 1724 0
 1853 00fa 1037     	 adds r7,r7,#16
 1854              	.LCFI53:
 1855              	 .cfi_def_cfa_offset 8
 1856 00fc BD46     	 mov sp,r7
 1857              	.LCFI54:
 1858              	 .cfi_def_cfa_register 13
 1859              	 
 1860 00fe 80BD     	 pop {r7,pc}
 1861              	.L120:
 1862              	 .align 2
 1863              	.L119:
 1864 0100 00000000 	 .word pxCurrentTCB
 1865 0104 00000000 	 .word pxReadyTasksLists
 1866 0108 00000000 	 .word uxTopReadyPriority
 1867 010c 00000000 	 .word xSuspendedTaskList
 1868 0110 00000000 	 .word xSchedulerRunning
 1869 0114 00000000 	 .word uxSchedulerSuspended
 1870 0118 04ED00E0 	 .word -536810236
 1871 011c 00000000 	 .word uxCurrentNumberOfTasks
 1872              	 .cfi_endproc
 1873              	.LFE145:
 1875              	 .section .text.prvTaskIsTaskSuspended,"ax",%progbits
 1876              	 .align 2
 1877              	 .thumb
 1878              	 .thumb_func
 1880              	prvTaskIsTaskSuspended:
 1881              	.LFB146:
1725:../Dave/Generated/FREERTOS/tasks.c **** 
1726:../Dave/Generated/FREERTOS/tasks.c **** #endif /* INCLUDE_vTaskSuspend */
1727:../Dave/Generated/FREERTOS/tasks.c **** /*-----------------------------------------------------------*/
1728:../Dave/Generated/FREERTOS/tasks.c **** 
1729:../Dave/Generated/FREERTOS/tasks.c **** #if ( INCLUDE_vTaskSuspend == 1 )
1730:../Dave/Generated/FREERTOS/tasks.c **** 
1731:../Dave/Generated/FREERTOS/tasks.c **** 	static BaseType_t prvTaskIsTaskSuspended( const TaskHandle_t xTask )
1732:../Dave/Generated/FREERTOS/tasks.c **** 	{
 1882              	 .loc 1 1732 0
 1883              	 .cfi_startproc
 1884              	 
 1885              	 
 1886              	 
 1887 0000 80B4     	 push {r7}
 1888              	.LCFI55:
 1889              	 .cfi_def_cfa_offset 4
 1890              	 .cfi_offset 7,-4
 1891 0002 87B0     	 sub sp,sp,#28
 1892              	.LCFI56:
 1893              	 .cfi_def_cfa_offset 32
 1894 0004 00AF     	 add r7,sp,#0
 1895              	.LCFI57:
 1896              	 .cfi_def_cfa_register 7
 1897 0006 7860     	 str r0,[r7,#4]
1733:../Dave/Generated/FREERTOS/tasks.c **** 	BaseType_t xReturn = pdFALSE;
 1898              	 .loc 1 1733 0
 1899 0008 0023     	 movs r3,#0
 1900 000a 7B61     	 str r3,[r7,#20]
1734:../Dave/Generated/FREERTOS/tasks.c **** 	const TCB_t * const pxTCB = ( TCB_t * ) xTask;
 1901              	 .loc 1 1734 0
 1902 000c 7B68     	 ldr r3,[r7,#4]
 1903 000e 3B61     	 str r3,[r7,#16]
1735:../Dave/Generated/FREERTOS/tasks.c **** 
1736:../Dave/Generated/FREERTOS/tasks.c **** 		/* Accesses xPendingReadyList so must be called from a critical
1737:../Dave/Generated/FREERTOS/tasks.c **** 		section. */
1738:../Dave/Generated/FREERTOS/tasks.c **** 
1739:../Dave/Generated/FREERTOS/tasks.c **** 		/* It does not make sense to check if the calling task is suspended. */
1740:../Dave/Generated/FREERTOS/tasks.c **** 		configASSERT( xTask );
 1904              	 .loc 1 1740 0
 1905 0010 7B68     	 ldr r3,[r7,#4]
 1906 0012 002B     	 cmp r3,#0
 1907 0014 09D1     	 bne .L122
 1908              	.LBB135:
 1909              	.LBB136:
 195:../Dave/Generated/FREERTOS/portable/GCC/portmacro.h **** 	(
 1910              	 .loc 2 195 0 discriminator 1
 1911              	
 1912 0016 4FF0FC03 	 mov r3,#252
 1913 001a 83F31188 	 msr basepri,r3
 1914 001e BFF36F8F 	 isb 
 1915 0022 BFF34F8F 	 dsb 
 1916              	
 1917              	
 1918              	 .thumb
 1919 0026 FB60     	 str r3,[r7,#12]
 1920              	.L123:
 1921              	.LBE136:
 1922              	.LBE135:
 1923              	 .loc 1 1740 0 discriminator 1
 1924 0028 FEE7     	 b .L123
 1925              	.L122:
1741:../Dave/Generated/FREERTOS/tasks.c **** 
1742:../Dave/Generated/FREERTOS/tasks.c **** 		/* Is the task being resumed actually in the suspended list? */
1743:../Dave/Generated/FREERTOS/tasks.c **** 		if( listIS_CONTAINED_WITHIN( &xSuspendedTaskList, &( pxTCB->xStateListItem ) ) != pdFALSE )
 1926              	 .loc 1 1743 0
 1927 002a 3B69     	 ldr r3,[r7,#16]
 1928 002c 5B69     	 ldr r3,[r3,#20]
 1929 002e 0F4A     	 ldr r2,.L130
 1930 0030 9342     	 cmp r3,r2
 1931 0032 01D1     	 bne .L124
 1932              	 .loc 1 1743 0 is_stmt 0 discriminator 1
 1933 0034 0123     	 movs r3,#1
 1934 0036 00E0     	 b .L125
 1935              	.L124:
 1936              	 .loc 1 1743 0 discriminator 2
 1937 0038 0023     	 movs r3,#0
 1938              	.L125:
 1939              	 .loc 1 1743 0 discriminator 4
 1940 003a 002B     	 cmp r3,#0
 1941 003c 0FD0     	 beq .L126
1744:../Dave/Generated/FREERTOS/tasks.c **** 		{
1745:../Dave/Generated/FREERTOS/tasks.c **** 			/* Has the task already been resumed from within an ISR? */
1746:../Dave/Generated/FREERTOS/tasks.c **** 			if( listIS_CONTAINED_WITHIN( &xPendingReadyList, &( pxTCB->xEventListItem ) ) == pdFALSE )
 1942              	 .loc 1 1746 0 is_stmt 1
 1943 003e 3B69     	 ldr r3,[r7,#16]
 1944 0040 9B6A     	 ldr r3,[r3,#40]
 1945 0042 0B4A     	 ldr r2,.L130+4
 1946 0044 9342     	 cmp r3,r2
 1947 0046 0AD0     	 beq .L126
1747:../Dave/Generated/FREERTOS/tasks.c **** 			{
1748:../Dave/Generated/FREERTOS/tasks.c **** 				/* Is it in the suspended list because it is in the	Suspended
1749:../Dave/Generated/FREERTOS/tasks.c **** 				state, or because is is blocked with no timeout? */
1750:../Dave/Generated/FREERTOS/tasks.c **** 				if( listIS_CONTAINED_WITHIN( NULL, &( pxTCB->xEventListItem ) ) != pdFALSE ) /*lint !e961.  The
 1948              	 .loc 1 1750 0
 1949 0048 3B69     	 ldr r3,[r7,#16]
 1950 004a 9B6A     	 ldr r3,[r3,#40]
 1951 004c 002B     	 cmp r3,#0
 1952 004e 01D1     	 bne .L127
 1953              	 .loc 1 1750 0 is_stmt 0 discriminator 1
 1954 0050 0123     	 movs r3,#1
 1955 0052 00E0     	 b .L128
 1956              	.L127:
 1957              	 .loc 1 1750 0 discriminator 2
 1958 0054 0023     	 movs r3,#0
 1959              	.L128:
 1960              	 .loc 1 1750 0 discriminator 4
 1961 0056 002B     	 cmp r3,#0
 1962 0058 01D0     	 beq .L126
1751:../Dave/Generated/FREERTOS/tasks.c **** 				{
1752:../Dave/Generated/FREERTOS/tasks.c **** 					xReturn = pdTRUE;
 1963              	 .loc 1 1752 0 is_stmt 1
 1964 005a 0123     	 movs r3,#1
 1965 005c 7B61     	 str r3,[r7,#20]
 1966              	.L126:
1753:../Dave/Generated/FREERTOS/tasks.c **** 				}
1754:../Dave/Generated/FREERTOS/tasks.c **** 				else
1755:../Dave/Generated/FREERTOS/tasks.c **** 				{
1756:../Dave/Generated/FREERTOS/tasks.c **** 					mtCOVERAGE_TEST_MARKER();
1757:../Dave/Generated/FREERTOS/tasks.c **** 				}
1758:../Dave/Generated/FREERTOS/tasks.c **** 			}
1759:../Dave/Generated/FREERTOS/tasks.c **** 			else
1760:../Dave/Generated/FREERTOS/tasks.c **** 			{
1761:../Dave/Generated/FREERTOS/tasks.c **** 				mtCOVERAGE_TEST_MARKER();
1762:../Dave/Generated/FREERTOS/tasks.c **** 			}
1763:../Dave/Generated/FREERTOS/tasks.c **** 		}
1764:../Dave/Generated/FREERTOS/tasks.c **** 		else
1765:../Dave/Generated/FREERTOS/tasks.c **** 		{
1766:../Dave/Generated/FREERTOS/tasks.c **** 			mtCOVERAGE_TEST_MARKER();
1767:../Dave/Generated/FREERTOS/tasks.c **** 		}
1768:../Dave/Generated/FREERTOS/tasks.c **** 
1769:../Dave/Generated/FREERTOS/tasks.c **** 		return xReturn;
 1967              	 .loc 1 1769 0
 1968 005e 7B69     	 ldr r3,[r7,#20]
1770:../Dave/Generated/FREERTOS/tasks.c **** 	} /*lint !e818 xTask cannot be a pointer to const because it is a typedef. */
 1969              	 .loc 1 1770 0
 1970 0060 1846     	 mov r0,r3
 1971 0062 1C37     	 adds r7,r7,#28
 1972              	.LCFI58:
 1973              	 .cfi_def_cfa_offset 4
 1974 0064 BD46     	 mov sp,r7
 1975              	.LCFI59:
 1976              	 .cfi_def_cfa_register 13
 1977              	 
 1978 0066 5DF8047B 	 ldr r7,[sp],#4
 1979              	.LCFI60:
 1980              	 .cfi_restore 7
 1981              	 .cfi_def_cfa_offset 0
 1982 006a 7047     	 bx lr
 1983              	.L131:
 1984              	 .align 2
 1985              	.L130:
 1986 006c 00000000 	 .word xSuspendedTaskList
 1987 0070 00000000 	 .word xPendingReadyList
 1988              	 .cfi_endproc
 1989              	.LFE146:
 1991              	 .section .text.vTaskResume,"ax",%progbits
 1992              	 .align 2
 1993              	 .global vTaskResume
 1994              	 .thumb
 1995              	 .thumb_func
 1997              	vTaskResume:
 1998              	.LFB147:
1771:../Dave/Generated/FREERTOS/tasks.c **** 
1772:../Dave/Generated/FREERTOS/tasks.c **** #endif /* INCLUDE_vTaskSuspend */
1773:../Dave/Generated/FREERTOS/tasks.c **** /*-----------------------------------------------------------*/
1774:../Dave/Generated/FREERTOS/tasks.c **** 
1775:../Dave/Generated/FREERTOS/tasks.c **** #if ( INCLUDE_vTaskSuspend == 1 )
1776:../Dave/Generated/FREERTOS/tasks.c **** 
1777:../Dave/Generated/FREERTOS/tasks.c **** 	void vTaskResume( TaskHandle_t xTaskToResume )
1778:../Dave/Generated/FREERTOS/tasks.c **** 	{
 1999              	 .loc 1 1778 0
 2000              	 .cfi_startproc
 2001              	 
 2002              	 
 2003 0000 80B5     	 push {r7,lr}
 2004              	.LCFI61:
 2005              	 .cfi_def_cfa_offset 8
 2006              	 .cfi_offset 7,-8
 2007              	 .cfi_offset 14,-4
 2008 0002 84B0     	 sub sp,sp,#16
 2009              	.LCFI62:
 2010              	 .cfi_def_cfa_offset 24
 2011 0004 00AF     	 add r7,sp,#0
 2012              	.LCFI63:
 2013              	 .cfi_def_cfa_register 7
 2014 0006 7860     	 str r0,[r7,#4]
1779:../Dave/Generated/FREERTOS/tasks.c **** 	TCB_t * const pxTCB = ( TCB_t * ) xTaskToResume;
 2015              	 .loc 1 1779 0
 2016 0008 7B68     	 ldr r3,[r7,#4]
 2017 000a FB60     	 str r3,[r7,#12]
1780:../Dave/Generated/FREERTOS/tasks.c **** 
1781:../Dave/Generated/FREERTOS/tasks.c **** 		/* It does not make sense to resume the calling task. */
1782:../Dave/Generated/FREERTOS/tasks.c **** 		configASSERT( xTaskToResume );
 2018              	 .loc 1 1782 0
 2019 000c 7B68     	 ldr r3,[r7,#4]
 2020 000e 002B     	 cmp r3,#0
 2021 0010 09D1     	 bne .L133
 2022              	.LBB137:
 2023              	.LBB138:
 195:../Dave/Generated/FREERTOS/portable/GCC/portmacro.h **** 	(
 2024              	 .loc 2 195 0 discriminator 1
 2025              	
 2026 0012 4FF0FC03 	 mov r3,#252
 2027 0016 83F31188 	 msr basepri,r3
 2028 001a BFF36F8F 	 isb 
 2029 001e BFF34F8F 	 dsb 
 2030              	
 2031              	
 2032              	 .thumb
 2033 0022 BB60     	 str r3,[r7,#8]
 2034              	.L134:
 2035              	.LBE138:
 2036              	.LBE137:
 2037              	 .loc 1 1782 0 discriminator 1
 2038 0024 FEE7     	 b .L134
 2039              	.L133:
1783:../Dave/Generated/FREERTOS/tasks.c **** 
1784:../Dave/Generated/FREERTOS/tasks.c **** 		/* The parameter cannot be NULL as it is impossible to resume the
1785:../Dave/Generated/FREERTOS/tasks.c **** 		currently executing task. */
1786:../Dave/Generated/FREERTOS/tasks.c **** 		if( ( pxTCB != NULL ) && ( pxTCB != pxCurrentTCB ) )
 2040              	 .loc 1 1786 0
 2041 0026 FB68     	 ldr r3,[r7,#12]
 2042 0028 002B     	 cmp r3,#0
 2043 002a 3BD0     	 beq .L132
 2044              	 .loc 1 1786 0 is_stmt 0 discriminator 1
 2045 002c 1F4B     	 ldr r3,.L137
 2046 002e 1B68     	 ldr r3,[r3]
 2047 0030 FA68     	 ldr r2,[r7,#12]
 2048 0032 9A42     	 cmp r2,r3
 2049 0034 36D0     	 beq .L132
1787:../Dave/Generated/FREERTOS/tasks.c **** 		{
1788:../Dave/Generated/FREERTOS/tasks.c **** 			taskENTER_CRITICAL();
 2050              	 .loc 1 1788 0 is_stmt 1
 2051 0036 FFF7FEFF 	 bl vPortEnterCritical
1789:../Dave/Generated/FREERTOS/tasks.c **** 			{
1790:../Dave/Generated/FREERTOS/tasks.c **** 				if( prvTaskIsTaskSuspended( pxTCB ) != pdFALSE )
 2052              	 .loc 1 1790 0
 2053 003a F868     	 ldr r0,[r7,#12]
 2054 003c FFF7FEFF 	 bl prvTaskIsTaskSuspended
 2055 0040 0346     	 mov r3,r0
 2056 0042 002B     	 cmp r3,#0
 2057 0044 2CD0     	 beq .L136
1791:../Dave/Generated/FREERTOS/tasks.c **** 				{
1792:../Dave/Generated/FREERTOS/tasks.c **** 					traceTASK_RESUME( pxTCB );
1793:../Dave/Generated/FREERTOS/tasks.c **** 
1794:../Dave/Generated/FREERTOS/tasks.c **** 					/* The ready list can be accessed even if the scheduler is
1795:../Dave/Generated/FREERTOS/tasks.c **** 					suspended because this is inside a critical section. */
1796:../Dave/Generated/FREERTOS/tasks.c **** 					( void ) uxListRemove(  &( pxTCB->xStateListItem ) );
 2058              	 .loc 1 1796 0
 2059 0046 FB68     	 ldr r3,[r7,#12]
 2060 0048 0433     	 adds r3,r3,#4
 2061 004a 1846     	 mov r0,r3
 2062 004c FFF7FEFF 	 bl uxListRemove
1797:../Dave/Generated/FREERTOS/tasks.c **** 					prvAddTaskToReadyList( pxTCB );
 2063              	 .loc 1 1797 0
 2064 0050 FB68     	 ldr r3,[r7,#12]
 2065 0052 DB6A     	 ldr r3,[r3,#44]
 2066 0054 1A46     	 mov r2,r3
 2067 0056 0123     	 movs r3,#1
 2068 0058 03FA02F2 	 lsl r2,r3,r2
 2069 005c 144B     	 ldr r3,.L137+4
 2070 005e 1B68     	 ldr r3,[r3]
 2071 0060 1343     	 orrs r3,r3,r2
 2072 0062 134A     	 ldr r2,.L137+4
 2073 0064 1360     	 str r3,[r2]
 2074 0066 FB68     	 ldr r3,[r7,#12]
 2075 0068 DA6A     	 ldr r2,[r3,#44]
 2076 006a 1346     	 mov r3,r2
 2077 006c 9B00     	 lsls r3,r3,#2
 2078 006e 1344     	 add r3,r3,r2
 2079 0070 9B00     	 lsls r3,r3,#2
 2080 0072 104A     	 ldr r2,.L137+8
 2081 0074 1A44     	 add r2,r2,r3
 2082 0076 FB68     	 ldr r3,[r7,#12]
 2083 0078 0433     	 adds r3,r3,#4
 2084 007a 1046     	 mov r0,r2
 2085 007c 1946     	 mov r1,r3
 2086 007e FFF7FEFF 	 bl vListInsertEnd
1798:../Dave/Generated/FREERTOS/tasks.c **** 
1799:../Dave/Generated/FREERTOS/tasks.c **** 					/* A higher priority task may have just been resumed. */
1800:../Dave/Generated/FREERTOS/tasks.c **** 					if( pxTCB->uxPriority >= pxCurrentTCB->uxPriority )
 2087              	 .loc 1 1800 0
 2088 0082 FB68     	 ldr r3,[r7,#12]
 2089 0084 DA6A     	 ldr r2,[r3,#44]
 2090 0086 094B     	 ldr r3,.L137
 2091 0088 1B68     	 ldr r3,[r3]
 2092 008a DB6A     	 ldr r3,[r3,#44]
 2093 008c 9A42     	 cmp r2,r3
 2094 008e 07D3     	 bcc .L136
1801:../Dave/Generated/FREERTOS/tasks.c **** 					{
1802:../Dave/Generated/FREERTOS/tasks.c **** 						/* This yield may not cause the task just resumed to run,
1803:../Dave/Generated/FREERTOS/tasks.c **** 						but will leave the lists in the correct state for the
1804:../Dave/Generated/FREERTOS/tasks.c **** 						next yield. */
1805:../Dave/Generated/FREERTOS/tasks.c **** 						taskYIELD_IF_USING_PREEMPTION();
 2095              	 .loc 1 1805 0
 2096 0090 094B     	 ldr r3,.L137+12
 2097 0092 4FF08052 	 mov r2,#268435456
 2098 0096 1A60     	 str r2,[r3]
 2099              	
 2100 0098 BFF34F8F 	 dsb
 2101              	
 2102              	
 2103 009c BFF36F8F 	 isb
 2104              	
 2105              	 .thumb
 2106              	.L136:
1806:../Dave/Generated/FREERTOS/tasks.c **** 					}
1807:../Dave/Generated/FREERTOS/tasks.c **** 					else
1808:../Dave/Generated/FREERTOS/tasks.c **** 					{
1809:../Dave/Generated/FREERTOS/tasks.c **** 						mtCOVERAGE_TEST_MARKER();
1810:../Dave/Generated/FREERTOS/tasks.c **** 					}
1811:../Dave/Generated/FREERTOS/tasks.c **** 				}
1812:../Dave/Generated/FREERTOS/tasks.c **** 				else
1813:../Dave/Generated/FREERTOS/tasks.c **** 				{
1814:../Dave/Generated/FREERTOS/tasks.c **** 					mtCOVERAGE_TEST_MARKER();
1815:../Dave/Generated/FREERTOS/tasks.c **** 				}
1816:../Dave/Generated/FREERTOS/tasks.c **** 			}
1817:../Dave/Generated/FREERTOS/tasks.c **** 			taskEXIT_CRITICAL();
 2107              	 .loc 1 1817 0
 2108 00a0 FFF7FEFF 	 bl vPortExitCritical
 2109              	.L132:
1818:../Dave/Generated/FREERTOS/tasks.c **** 		}
1819:../Dave/Generated/FREERTOS/tasks.c **** 		else
1820:../Dave/Generated/FREERTOS/tasks.c **** 		{
1821:../Dave/Generated/FREERTOS/tasks.c **** 			mtCOVERAGE_TEST_MARKER();
1822:../Dave/Generated/FREERTOS/tasks.c **** 		}
1823:../Dave/Generated/FREERTOS/tasks.c **** 	}
 2110              	 .loc 1 1823 0
 2111 00a4 1037     	 adds r7,r7,#16
 2112              	.LCFI64:
 2113              	 .cfi_def_cfa_offset 8
 2114 00a6 BD46     	 mov sp,r7
 2115              	.LCFI65:
 2116              	 .cfi_def_cfa_register 13
 2117              	 
 2118 00a8 80BD     	 pop {r7,pc}
 2119              	.L138:
 2120 00aa 00BF     	 .align 2
 2121              	.L137:
 2122 00ac 00000000 	 .word pxCurrentTCB
 2123 00b0 00000000 	 .word uxTopReadyPriority
 2124 00b4 00000000 	 .word pxReadyTasksLists
 2125 00b8 04ED00E0 	 .word -536810236
 2126              	 .cfi_endproc
 2127              	.LFE147:
 2129              	 .section .text.xTaskResumeFromISR,"ax",%progbits
 2130              	 .align 2
 2131              	 .global xTaskResumeFromISR
 2132              	 .thumb
 2133              	 .thumb_func
 2135              	xTaskResumeFromISR:
 2136              	.LFB148:
1824:../Dave/Generated/FREERTOS/tasks.c **** 
1825:../Dave/Generated/FREERTOS/tasks.c **** #endif /* INCLUDE_vTaskSuspend */
1826:../Dave/Generated/FREERTOS/tasks.c **** 
1827:../Dave/Generated/FREERTOS/tasks.c **** /*-----------------------------------------------------------*/
1828:../Dave/Generated/FREERTOS/tasks.c **** 
1829:../Dave/Generated/FREERTOS/tasks.c **** #if ( ( INCLUDE_xTaskResumeFromISR == 1 ) && ( INCLUDE_vTaskSuspend == 1 ) )
1830:../Dave/Generated/FREERTOS/tasks.c **** 
1831:../Dave/Generated/FREERTOS/tasks.c **** 	BaseType_t xTaskResumeFromISR( TaskHandle_t xTaskToResume )
1832:../Dave/Generated/FREERTOS/tasks.c **** 	{
 2137              	 .loc 1 1832 0
 2138              	 .cfi_startproc
 2139              	 
 2140              	 
 2141 0000 80B5     	 push {r7,lr}
 2142              	.LCFI66:
 2143              	 .cfi_def_cfa_offset 8
 2144              	 .cfi_offset 7,-8
 2145              	 .cfi_offset 14,-4
 2146 0002 8AB0     	 sub sp,sp,#40
 2147              	.LCFI67:
 2148              	 .cfi_def_cfa_offset 48
 2149 0004 00AF     	 add r7,sp,#0
 2150              	.LCFI68:
 2151              	 .cfi_def_cfa_register 7
 2152 0006 7860     	 str r0,[r7,#4]
1833:../Dave/Generated/FREERTOS/tasks.c **** 	BaseType_t xYieldRequired = pdFALSE;
 2153              	 .loc 1 1833 0
 2154 0008 0023     	 movs r3,#0
 2155 000a 7B62     	 str r3,[r7,#36]
1834:../Dave/Generated/FREERTOS/tasks.c **** 	TCB_t * const pxTCB = ( TCB_t * ) xTaskToResume;
 2156              	 .loc 1 1834 0
 2157 000c 7B68     	 ldr r3,[r7,#4]
 2158 000e 3B62     	 str r3,[r7,#32]
1835:../Dave/Generated/FREERTOS/tasks.c **** 	UBaseType_t uxSavedInterruptStatus;
1836:../Dave/Generated/FREERTOS/tasks.c **** 
1837:../Dave/Generated/FREERTOS/tasks.c **** 		configASSERT( xTaskToResume );
 2159              	 .loc 1 1837 0
 2160 0010 7B68     	 ldr r3,[r7,#4]
 2161 0012 002B     	 cmp r3,#0
 2162 0014 09D1     	 bne .L140
 2163              	.LBB139:
 2164              	.LBB140:
 195:../Dave/Generated/FREERTOS/portable/GCC/portmacro.h **** 	(
 2165              	 .loc 2 195 0 discriminator 1
 2166              	
 2167 0016 4FF0FC03 	 mov r3,#252
 2168 001a 83F31188 	 msr basepri,r3
 2169 001e BFF36F8F 	 isb 
 2170 0022 BFF34F8F 	 dsb 
 2171              	
 2172              	
 2173              	 .thumb
 2174 0026 BB61     	 str r3,[r7,#24]
 2175              	.L141:
 2176              	.LBE140:
 2177              	.LBE139:
 2178              	 .loc 1 1837 0 discriminator 1
 2179 0028 FEE7     	 b .L141
 2180              	.L140:
1838:../Dave/Generated/FREERTOS/tasks.c **** 
1839:../Dave/Generated/FREERTOS/tasks.c **** 		/* RTOS ports that support interrupt nesting have the concept of a
1840:../Dave/Generated/FREERTOS/tasks.c **** 		maximum	system call (or maximum API call) interrupt priority.
1841:../Dave/Generated/FREERTOS/tasks.c **** 		Interrupts that are	above the maximum system call priority are keep
1842:../Dave/Generated/FREERTOS/tasks.c **** 		permanently enabled, even when the RTOS kernel is in a critical section,
1843:../Dave/Generated/FREERTOS/tasks.c **** 		but cannot make any calls to FreeRTOS API functions.  If configASSERT()
1844:../Dave/Generated/FREERTOS/tasks.c **** 		is defined in FreeRTOSConfig.h then
1845:../Dave/Generated/FREERTOS/tasks.c **** 		portASSERT_IF_INTERRUPT_PRIORITY_INVALID() will result in an assertion
1846:../Dave/Generated/FREERTOS/tasks.c **** 		failure if a FreeRTOS API function is called from an interrupt that has
1847:../Dave/Generated/FREERTOS/tasks.c **** 		been assigned a priority above the configured maximum system call
1848:../Dave/Generated/FREERTOS/tasks.c **** 		priority.  Only FreeRTOS functions that end in FromISR can be called
1849:../Dave/Generated/FREERTOS/tasks.c **** 		from interrupts	that have been assigned a priority at or (logically)
1850:../Dave/Generated/FREERTOS/tasks.c **** 		below the maximum system call interrupt priority.  FreeRTOS maintains a
1851:../Dave/Generated/FREERTOS/tasks.c **** 		separate interrupt safe API to ensure interrupt entry is as fast and as
1852:../Dave/Generated/FREERTOS/tasks.c **** 		simple as possible.  More information (albeit Cortex-M specific) is
1853:../Dave/Generated/FREERTOS/tasks.c **** 		provided on the following link:
1854:../Dave/Generated/FREERTOS/tasks.c **** 		http://www.freertos.org/RTOS-Cortex-M3-M4.html */
1855:../Dave/Generated/FREERTOS/tasks.c **** 		portASSERT_IF_INTERRUPT_PRIORITY_INVALID();
 2181              	 .loc 1 1855 0
 2182 002a FFF7FEFF 	 bl vPortValidateInterruptPriority
 2183              	.LBB141:
 2184              	.LBB142:
 211:../Dave/Generated/FREERTOS/portable/GCC/portmacro.h **** 	(
 2185              	 .loc 2 211 0
 2186              	
 2187 002e EFF31182 	 mrs r2,basepri
 2188 0032 4FF0FC03 	 mov r3,#252
 2189 0036 83F31188 	 msr basepri,r3
 2190 003a BFF36F8F 	 isb 
 2191 003e BFF34F8F 	 dsb 
 2192              	
 2193              	
 2194              	 .thumb
 2195 0042 7A61     	 str r2,[r7,#20]
 2196 0044 3B61     	 str r3,[r7,#16]
 223:../Dave/Generated/FREERTOS/portable/GCC/portmacro.h **** }
 2197              	 .loc 2 223 0
 2198 0046 7B69     	 ldr r3,[r7,#20]
 2199              	.LBE142:
 2200              	.LBE141:
1856:../Dave/Generated/FREERTOS/tasks.c **** 
1857:../Dave/Generated/FREERTOS/tasks.c **** 		uxSavedInterruptStatus = portSET_INTERRUPT_MASK_FROM_ISR();
 2201              	 .loc 1 1857 0
 2202 0048 FB61     	 str r3,[r7,#28]
1858:../Dave/Generated/FREERTOS/tasks.c **** 		{
1859:../Dave/Generated/FREERTOS/tasks.c **** 			if( prvTaskIsTaskSuspended( pxTCB ) != pdFALSE )
 2203              	 .loc 1 1859 0
 2204 004a 386A     	 ldr r0,[r7,#32]
 2205 004c FFF7FEFF 	 bl prvTaskIsTaskSuspended
 2206 0050 0346     	 mov r3,r0
 2207 0052 002B     	 cmp r3,#0
 2208 0054 31D0     	 beq .L143
1860:../Dave/Generated/FREERTOS/tasks.c **** 			{
1861:../Dave/Generated/FREERTOS/tasks.c **** 				traceTASK_RESUME_FROM_ISR( pxTCB );
1862:../Dave/Generated/FREERTOS/tasks.c **** 
1863:../Dave/Generated/FREERTOS/tasks.c **** 				/* Check the ready lists can be accessed. */
1864:../Dave/Generated/FREERTOS/tasks.c **** 				if( uxSchedulerSuspended == ( UBaseType_t ) pdFALSE )
 2209              	 .loc 1 1864 0
 2210 0056 1E4B     	 ldr r3,.L148
 2211 0058 1B68     	 ldr r3,[r3]
 2212 005a 002B     	 cmp r3,#0
 2213 005c 27D1     	 bne .L144
1865:../Dave/Generated/FREERTOS/tasks.c **** 				{
1866:../Dave/Generated/FREERTOS/tasks.c **** 					/* Ready lists can be accessed so move the task from the
1867:../Dave/Generated/FREERTOS/tasks.c **** 					suspended list to the ready list directly. */
1868:../Dave/Generated/FREERTOS/tasks.c **** 					if( pxTCB->uxPriority >= pxCurrentTCB->uxPriority )
 2214              	 .loc 1 1868 0
 2215 005e 3B6A     	 ldr r3,[r7,#32]
 2216 0060 DA6A     	 ldr r2,[r3,#44]
 2217 0062 1C4B     	 ldr r3,.L148+4
 2218 0064 1B68     	 ldr r3,[r3]
 2219 0066 DB6A     	 ldr r3,[r3,#44]
 2220 0068 9A42     	 cmp r2,r3
 2221 006a 01D3     	 bcc .L145
1869:../Dave/Generated/FREERTOS/tasks.c **** 					{
1870:../Dave/Generated/FREERTOS/tasks.c **** 						xYieldRequired = pdTRUE;
 2222              	 .loc 1 1870 0
 2223 006c 0123     	 movs r3,#1
 2224 006e 7B62     	 str r3,[r7,#36]
 2225              	.L145:
1871:../Dave/Generated/FREERTOS/tasks.c **** 					}
1872:../Dave/Generated/FREERTOS/tasks.c **** 					else
1873:../Dave/Generated/FREERTOS/tasks.c **** 					{
1874:../Dave/Generated/FREERTOS/tasks.c **** 						mtCOVERAGE_TEST_MARKER();
1875:../Dave/Generated/FREERTOS/tasks.c **** 					}
1876:../Dave/Generated/FREERTOS/tasks.c **** 
1877:../Dave/Generated/FREERTOS/tasks.c **** 					( void ) uxListRemove( &( pxTCB->xStateListItem ) );
 2226              	 .loc 1 1877 0
 2227 0070 3B6A     	 ldr r3,[r7,#32]
 2228 0072 0433     	 adds r3,r3,#4
 2229 0074 1846     	 mov r0,r3
 2230 0076 FFF7FEFF 	 bl uxListRemove
1878:../Dave/Generated/FREERTOS/tasks.c **** 					prvAddTaskToReadyList( pxTCB );
 2231              	 .loc 1 1878 0
 2232 007a 3B6A     	 ldr r3,[r7,#32]
 2233 007c DB6A     	 ldr r3,[r3,#44]
 2234 007e 1A46     	 mov r2,r3
 2235 0080 0123     	 movs r3,#1
 2236 0082 03FA02F2 	 lsl r2,r3,r2
 2237 0086 144B     	 ldr r3,.L148+8
 2238 0088 1B68     	 ldr r3,[r3]
 2239 008a 1343     	 orrs r3,r3,r2
 2240 008c 124A     	 ldr r2,.L148+8
 2241 008e 1360     	 str r3,[r2]
 2242 0090 3B6A     	 ldr r3,[r7,#32]
 2243 0092 DA6A     	 ldr r2,[r3,#44]
 2244 0094 1346     	 mov r3,r2
 2245 0096 9B00     	 lsls r3,r3,#2
 2246 0098 1344     	 add r3,r3,r2
 2247 009a 9B00     	 lsls r3,r3,#2
 2248 009c 0F4A     	 ldr r2,.L148+12
 2249 009e 1A44     	 add r2,r2,r3
 2250 00a0 3B6A     	 ldr r3,[r7,#32]
 2251 00a2 0433     	 adds r3,r3,#4
 2252 00a4 1046     	 mov r0,r2
 2253 00a6 1946     	 mov r1,r3
 2254 00a8 FFF7FEFF 	 bl vListInsertEnd
 2255 00ac 05E0     	 b .L143
 2256              	.L144:
1879:../Dave/Generated/FREERTOS/tasks.c **** 				}
1880:../Dave/Generated/FREERTOS/tasks.c **** 				else
1881:../Dave/Generated/FREERTOS/tasks.c **** 				{
1882:../Dave/Generated/FREERTOS/tasks.c **** 					/* The delayed or ready lists cannot be accessed so the task
1883:../Dave/Generated/FREERTOS/tasks.c **** 					is held in the pending ready list until the scheduler is
1884:../Dave/Generated/FREERTOS/tasks.c **** 					unsuspended. */
1885:../Dave/Generated/FREERTOS/tasks.c **** 					vListInsertEnd( &( xPendingReadyList ), &( pxTCB->xEventListItem ) );
 2257              	 .loc 1 1885 0
 2258 00ae 3B6A     	 ldr r3,[r7,#32]
 2259 00b0 1833     	 adds r3,r3,#24
 2260 00b2 0B48     	 ldr r0,.L148+16
 2261 00b4 1946     	 mov r1,r3
 2262 00b6 FFF7FEFF 	 bl vListInsertEnd
 2263              	.L143:
 2264 00ba FB69     	 ldr r3,[r7,#28]
 2265 00bc FB60     	 str r3,[r7,#12]
 2266              	.LBB143:
 2267              	.LBB144:
 2268              	 .loc 2 229 0
 2269 00be FB68     	 ldr r3,[r7,#12]
 2270              	
 2271 00c0 83F31188 	 msr basepri,r3
 2272              	
 2273              	 .thumb
 2274              	.LBE144:
 2275              	.LBE143:
1886:../Dave/Generated/FREERTOS/tasks.c **** 				}
1887:../Dave/Generated/FREERTOS/tasks.c **** 			}
1888:../Dave/Generated/FREERTOS/tasks.c **** 			else
1889:../Dave/Generated/FREERTOS/tasks.c **** 			{
1890:../Dave/Generated/FREERTOS/tasks.c **** 				mtCOVERAGE_TEST_MARKER();
1891:../Dave/Generated/FREERTOS/tasks.c **** 			}
1892:../Dave/Generated/FREERTOS/tasks.c **** 		}
1893:../Dave/Generated/FREERTOS/tasks.c **** 		portCLEAR_INTERRUPT_MASK_FROM_ISR( uxSavedInterruptStatus );
1894:../Dave/Generated/FREERTOS/tasks.c **** 
1895:../Dave/Generated/FREERTOS/tasks.c **** 		return xYieldRequired;
 2276              	 .loc 1 1895 0
 2277 00c4 7B6A     	 ldr r3,[r7,#36]
1896:../Dave/Generated/FREERTOS/tasks.c **** 	}
 2278              	 .loc 1 1896 0
 2279 00c6 1846     	 mov r0,r3
 2280 00c8 2837     	 adds r7,r7,#40
 2281              	.LCFI69:
 2282              	 .cfi_def_cfa_offset 8
 2283 00ca BD46     	 mov sp,r7
 2284              	.LCFI70:
 2285              	 .cfi_def_cfa_register 13
 2286              	 
 2287 00cc 80BD     	 pop {r7,pc}
 2288              	.L149:
 2289 00ce 00BF     	 .align 2
 2290              	.L148:
 2291 00d0 00000000 	 .word uxSchedulerSuspended
 2292 00d4 00000000 	 .word pxCurrentTCB
 2293 00d8 00000000 	 .word uxTopReadyPriority
 2294 00dc 00000000 	 .word pxReadyTasksLists
 2295 00e0 00000000 	 .word xPendingReadyList
 2296              	 .cfi_endproc
 2297              	.LFE148:
 2299              	 .section .rodata
 2300              	 .align 2
 2301              	.LC0:
 2302 0000 49444C45 	 .ascii "IDLE\000"
 2302      00
 2303              	 .section .text.vTaskStartScheduler,"ax",%progbits
 2304              	 .align 2
 2305              	 .global vTaskStartScheduler
 2306              	 .thumb
 2307              	 .thumb_func
 2309              	vTaskStartScheduler:
 2310              	.LFB149:
1897:../Dave/Generated/FREERTOS/tasks.c **** 
1898:../Dave/Generated/FREERTOS/tasks.c **** #endif /* ( ( INCLUDE_xTaskResumeFromISR == 1 ) && ( INCLUDE_vTaskSuspend == 1 ) ) */
1899:../Dave/Generated/FREERTOS/tasks.c **** /*-----------------------------------------------------------*/
1900:../Dave/Generated/FREERTOS/tasks.c **** 
1901:../Dave/Generated/FREERTOS/tasks.c **** void vTaskStartScheduler( void )
1902:../Dave/Generated/FREERTOS/tasks.c **** {
 2311              	 .loc 1 1902 0
 2312              	 .cfi_startproc
 2313              	 
 2314              	 
 2315 0000 80B5     	 push {r7,lr}
 2316              	.LCFI71:
 2317              	 .cfi_def_cfa_offset 8
 2318              	 .cfi_offset 7,-8
 2319              	 .cfi_offset 14,-4
 2320 0002 86B0     	 sub sp,sp,#24
 2321              	.LCFI72:
 2322              	 .cfi_def_cfa_offset 32
 2323 0004 02AF     	 add r7,sp,#8
 2324              	.LCFI73:
 2325              	 .cfi_def_cfa 7,24
1903:../Dave/Generated/FREERTOS/tasks.c **** BaseType_t xReturn;
1904:../Dave/Generated/FREERTOS/tasks.c **** 
1905:../Dave/Generated/FREERTOS/tasks.c **** 	/* Add the idle task at the lowest priority. */
1906:../Dave/Generated/FREERTOS/tasks.c **** 	#if( configSUPPORT_STATIC_ALLOCATION == 1 )
1907:../Dave/Generated/FREERTOS/tasks.c **** 	{
1908:../Dave/Generated/FREERTOS/tasks.c **** 		StaticTask_t *pxIdleTaskTCBBuffer = NULL;
